(lp1
c__builtin__
set
p2
((lp3
I4097
aI13995
aI5462
aI14337
aI4104
aI6153
aI8202
aI4108
aI2063
aI18
aI19
aI12313
aI2077
aI8224
aI8048
aI16419
aI4134
aI14209
aI14377
aI8235
aI8238
aI6152
aI4146
aI16436
aI8245
aI6198
aI2103
aI9140
aI6208
aI8258
aI2115
aI2117
aI16454
aI16457
aI2123
aI2125
aI16462
aI2128
aI8274
aI16470
aI8280
aI91
aI8732
aI8288
aI4163
aI14435
aI6244
aI2149
aI16489
aI8299
aI14354
aI15037
aI8305
aI2067
aI4213
aI8310
aI4215
aI2169
aI6266
aI126
aI128
aI2178
aI2179
aI8328
aI2185
aI2188
aI6285
aI16526
aI145
aI10386
aI150
aI25
aI7711
aI4249
aI2203
aI4253
aI3781
aI6307
aI12452
aI2213
aI14622
aI4266
aI171
aI2225
aI7539
aI2229
aI15350
aI6331
aI8382
aI8384
aI12482
aI4292
aI10956
aI4298
aI4299
aI6349
aI213
aI16598
aI14555
aI12509
aI222
aI3109
aI4321
aI4322
aI16611
aI5158
aI4327
aI6377
aI234
aI236
aI4333
aI16625
aI7714
aI4341
aI4344
aI9010
aI14588
aI253
aI14037
aI5504
aI14379
aI4357
aI14599
aI4363
aI8463
aI8469
aI8470
aI8261
aI4384
aI6433
aI6435
aI6079
aI4393
aI6444
aI2354
aI6453
aI4406
aI4408
aI7903
aI12604
aI15025
aI10558
aI6466
aI2371
aI14661
aI4423
aI6472
aI330
aI16439
aI332
aI6484
aI13710
aI10582
aI343
aI2393
aI4442
aI4444
aI6494
aI352
aI8592
aI357
aI8593
aI8554
aI2791
aI12653
aI2415
aI369
aI370
aI2419
aI15764
aI379
aI2428
aI746
aI382
aI64
aI8939
aI8580
aI8333
aI401
aI8595
aI404
aI405
aI406
aI407
aI4508
aI415
aI8610
aI8621
aI432
aI433
aI4537
aI14813
aI8607
aI4543
aI4546
aI10693
aI455
aI14794
aI759
aI12751
aI8952
aI14807
aI6085
aI2523
aI4573
aI8675
aI8677
aI14822
aI4584
aI8681
aI2539
aI4588
aI16125
aI2549
aI8696
aI6649
aI8814
aI507
aI2557
aI14850
aI2563
aI2564
aI2566
aI2576
aI529
aI14868
aI8726
aI4631
aI14875
aI4636
aI4637
aI546
aI12379
aI2596
aI10790
aI4648
aI2601
aI2605
aI4654
aI8753
aI562
aI6707
aI565
aI570
aI3565
aI13658
aI2621
aI574
aI8767
aI16045
aI578
aI579
aI580
aI12869
aI583
aI4111
aI8778
aI6733
aI6734
aI4687
aI14929
aI8789
aI12888
aI8292
aI14938
aI8796
aI15463
aI4717
aI2670
aI6767
aI14963
aI630
aI14970
aI14974
aI6934
aI7617
aI2699
aI8642
aI6432
aI4753
aI2706
aI8819
aI8852
aI2709
aI4758
aI8856
aI3524
aI8986
aI2720
aI4773
aI6822
aI8871
aI8872
aI2731
aI4781
aI15133
aI4785
aI4894
aI14344
aI14871
aI8893
aI15040
aI14795
aI708
aI15045
aI6858
aI2764
aI13738
aI13663
aI723
aI13014
aI4823
aI8924
aI736
aI8929
aI2789
aI743
aI744
aI4842
aI6891
aI8940
aI8944
aI2801
aI2174
aI6902
aI2807
aI2808
aI11004
aI15102
aI16392
aI2819
aI7638
aI775
aI6921
aI4874
aI4875
aI2829
aI4882
aI2838
aI8983
aI8984
aI6938
aI8987
aI4893
aI2846
aI14811
aI6948
aI4901
aI15153
aI9000
aI15148
aI13101
aI815
aI2865
aI2866
aI6963
aI2073
aI6965
aI2870
aI15159
aI15162
aI828
aI9022
aI6975
aI2880
aI2881
aI3642
aI9028
aI6966
aI13127
aI2888
aI8332
aI9034
aI15031
aI4943
aI9040
aI849
aI2898
aI2904
aI15083
aI2908
aI2910
aI9060
aI869
aI870
aI7017
aI875
aI7024
aI9076
aI4981
aI7031
aI15225
aI9086
aI15235
aI4997
aI9094
aI7660
aI15243
aI911
aI915
aI15257
aI7068
aI2975
aI15856
aI931
aI7077
aI7078
aI936
aI7081
aI9031
aI9133
aI9136
aI2994
aI11187
aI2996
aI11192
aI15171
aI9148
aI3007
aI9153
aI3011
aI3012
aI966
aI5064
aI5069
aI14840
aI7331
aI14842
aI7135
aI7136
aI3041
aI7138
aI14382
aI7144
aI3058
aI16211
aI1014
aI1015
aI1017
aI6717
aI14355
aI1029
aI3082
aI3085
aI8024
aI15379
aI1044
aI1045
aI5143
aI15386
aI5148
aI7198
aI1058
aI4877
aI11301
aI1062
aI15400
aI15196
aI3119
aI1072
aI16539
aI3130
aI8765
aI7232
aI1090
aI16146
aI3146
aI3148
aI13837
aI5200
aI9298
aI5207
aI15546
aI5214
aI1119
aI15995
aI5221
aI3175
aI5224
aI5229
aI15472
aI8040
aI13427
aI14526
aI7287
aI3192
aI1145
aI3195
aI1061
aI1152
aI1161
aI8563
aI8386
aI5265
aI7059
aI6529
aI15511
aI1185
aI14224
aI11427
aI15528
aI3241
aI15531
aI5294
aI5295
aI15539
aI5302
aI15545
aI7354
aI3259
aI15550
aI5312
aI7362
aI15562
aI13517
aI7378
aI7380
aI3288
aI14718
aI3291
aI5340
aI7389
aI1250
aI1256
aI13547
aI7408
aI7410
aI15603
aI1271
aI5368
aI15572
aI3322
aI5374
aI1281
aI3330
aI3332
aI3969
aI1292
aI8066
aI13583
aI13585
aI1298
aI15635
aI15216
aI2606
aI7449
aI13594
aI7453
aI3358
aI16615
aI14501
aI5411
aI7472
aI15668
aI7478
aI13628
aI1341
aI1342
aI3391
aI9537
aI1352
aI13646
aI5456
aI7505
aI5460
aI3414
aI3416
aI1370
aI15247
aI3421
aI1374
aI3423
aI8080
aI8081
aI15390
aI14567
aI5487
aI13681
aI13203
aI8425
aI3451
aI1408
aI3457
aI9608
aI2284
aI4674
aI7566
aI14901
aI7572
aI15765
aI5526
aI1433
aI16282
aI3488
aI13552
aI7592
aI5546
aI1456
aI1459
aI3508
aI5559
aI5561
aI5562
aI5563
aI5567
aI3521
aI1476
aI1477
aI15820
aI3533
aI7631
aI1489
aI15827
aI3542
aI13783
aI6735
aI15837
aI13790
aI7647
aI1504
aI3553
aI11747
aI3559
aI8103
aI1516
aI1517
aI1519
aI5616
aI6056
aI13826
aI6057
aI15864
aI5630
aI5631
aI3586
aI15877
aI13569
aI3593
aI7690
aI5645
aI7694
aI7696
aI8971
aI5653
aI15896
aI7428
aI15898
aI3611
aI11804
aI13854
aI5663
aI15280
aI5666
aI8113
aI1576
aI15914
aI9771
aI1582
aI15922
aI15283
aI7738
aI7733
aI1590
aI5689
aI5690
aI13883
aI5697
aI5701
aI7751
aI1608
aI13899
aI6871
aI7759
aI13904
aI1617
aI13761
aI15960
aI3684
aI1626
aI7772
aI15966
aI5728
aI15000
aI3683
aI1636
aI5739
aI3692
aI7789
aI8958
aI1649
aI1650
aI15991
aI5752
aI15636
aI1659
aI7806
aI5764
aI1671
aI7821
aI13966
aI2669
aI15809
aI16323
aI4718
aI7830
aI1688
aI14959
aI7836
aI1989
aI5793
aI7842
aI13987
aI1700
aI16037
aI15985
aI1704
aI5803
aI13996
aI15986
aI5808
aI5809
aI627
aI5812
aI1717
aI15166
aI16056
aI16058
aI3772
aI3773
aI7871
aI3777
aI7876
aI1733
aI7878
aI1735
aI3789
aI7117
aI14033
aI3796
aI13629
aI7895
aI7896
aI7899
aI3804
aI1759
aI7905
aI1762
aI3811
aI16100
aI14053
aI1767
aI15812
aI14062
aI14064
aI7921
aI5881
aI5885
aI7934
aI5888
aI7940
aI7941
aI7949
aI14094
aI5903
aI5906
aI14106
aI14108
aI1821
aI7967
aI7968
aI3873
aI3875
aI14122
aI5931
aI1836
aI7981
aI8157
aI7800
aI14136
aI15269
aI1850
aI5948
aI3909
aI4290
aI3914
aI16204
aI5969
aI3923
aI3925
aI5975
aI1880
aI3934
aI14181
aI5992
aI5993
aI3946
aI5996
aI8850
aI5999
aI12144
aI7486
aI6008
aI6009
aI8058
aI1916
aI3965
aI14208
aI1921
aI14210
aI6019
aI1924
aI1345
aI8073
aI13976
aI3979
aI6032
aI16273
aI3988
aI1942
aI3991
aI6042
aI3996
aI8093
aI1950
aI16289
aI6052
aI16293
aI1959
aI8104
aI8105
aI4010
aI14663
aI6065
aI1972
aI14262
aI16569
aI16314
aI8522
aI16318
aI1983
aI14272
aI8130
aI6083
aI15731
aI3062
aI16493
aI1997
aI14933
aI14289
aI4056
aI5796
aI6109
aI6000
aI4068
aI8167
aI8172
aI16365
aI6127
aI15889
aI8182
aI16375
aI8187
aI4092
aI16381
aI8190
atRp4
ag2
((lp5
I16384
aI16390
aI2057
aI2059
aI6157
aI2065
aI2068
aI14358
aI2074
aI8220
aI12318
aI5125
aI8226
aI14371
aI6183
aI4139
aI44
aI2093
aI6191
aI8241
aI8243
aI14389
aI15028
aI6206
aI4159
aI2112
aI4161
aI15030
aI15276
aI72
aI14410
aI2124
aI16449
aI6840
aI13667
aI14421
aI356
aI16479
aI16482
aI16483
aI14436
aI8294
aI2152
aI4202
aI4206
aI4207
aI2160
aI14696
aI16498
aI14451
aI16502
aI6268
aI6269
aI8319
aI13575
aI4225
aI4226
aI14467
aI8325
aI2184
aI4233
aI16523
aI6284
aI16525
aI2191
aI3779
aI14493
aI7877
aI8355
aI15046
aI8359
aI6314
aI4268
aI2222
aI14511
aI176
aI12465
aI2226
aI14515
aI6324
aI14520
aI4283
aI6333
aI2238
aI6340
aI6518
aI8396
aI6350
aI5496
aI6354
aI4308
aI7713
aI2264
aI4243
aI13919
aI16603
aI2268
aI5498
aI14558
aI14032
aI8571
aI7889
aI8424
aI6524
aI2282
aI8231
aI14572
aI16082
aI4334
aI4337
aI4339
aI2292
aI14581
aI4353
aI4356
aI4358
aI4359
aI2312
aI8236
aI268
aI4365
aI4367
aI273
aI2322
aI14615
aI6428
aI285
aI10526
aI8479
aI8482
aI14627
aI2343
aI8490
aI2347
aI8497
aI16435
aI308
aI8926
aI2358
aI317
aI16241
aI12609
aI322
aI8515
aI8516
aI6469
aI12615
aI2377
aI8525
aI8526
aI14671
aI4433
aI8530
aI14051
aI2388
aI8533
aI14679
aI344
aI8537
aI6490
aI14735
aI6493
aI8543
aI8544
aI2404
aI2405
aI8550
aI13863
aI8553
aI4459
aI365
aI7309
aI6514
aI4469
aI4470
aI4471
aI4472
aI8569
aI6522
aI2427
aI380
aI6525
aI2432
aI4482
aI389
aI2438
aI2113
aI15084
aI2442
aI4494
aI399
aI403
aI12692
aI3822
aI4503
aI409
aI6554
aI12701
aI14750
aI10656
aI2465
aI422
aI12713
aI8618
aI4523
aI6572
aI2479
aI14408
aI8947
aI4532
aI437
aI5193
aI6584
aI4490
aI8638
aI6591
aI452
aI14791
aI459
aI4559
aI2520
aI4569
aI13733
aI4579
aI6631
aI2538
aI8683
aI492
aI4591
aI13724
aI8691
aI8692
aI14838
aI8695
aI2554
aI8701
aI6656
aI8405
aI516
aI2565
aI4859
aI4616
aI10761
aI8715
aI2572
aI6670
aI8721
aI4626
aI2579
aI533
aI6679
aI2586
aI2588
aI2590
aI8735
aI15703
aI549
aI4647
aI14888
aI6698
aI14897
aI8756
aI8761
aI14461
aI4667
aI572
aI14915
aI14916
aI2630
aI2631
aI585
aI6732
aI4696
aI4697
aI8794
aI6927
aI4700
aI8797
aI9659
aI14949
aI7953
aI619
aI10861
aI14440
aI6772
aI6779
aI2688
aI2689
aI14978
aI3179
aI8273
aI6794
aI4748
aI14990
aI15843
aI14993
aI4889
aI2718
aI8864
aI6817
aI4772
aI6821
aI2730
aI15503
aI6830
aI12980
aI8886
aI8887
aI2744
aI4796
aI8684
aI6847
aI6849
aI5579
aI8901
aI4806
aI6855
aI2760
aI15049
aI8906
aI15138
aI6863
aI2768
aI15057
aI725
aI4822
aI2775
aI3843
aI7972
aI6877
aI4830
aI2783
aI8932
aI7974
aI15078
aI15080
aI6889
aI2796
aI4846
aI4847
aI753
aI755
aI8949
aI2811
aI2815
aI15112
aI6925
aI4878
aI2831
aI8976
aI6929
aI15124
aI13079
aI6936
aI793
aI14127
aI2850
aI6947
aI805
aI5937
aI9002
aI4232
aI6962
aI9013
aI9014
aI8329
aI824
aI2874
aI4925
aI15157
aI11076
aI15173
aI15175
aI9035
aI2894
aI1165
aI2872
aI850
aI4947
aI852
aI853
aI3215
aI7004
aI4962
aI2916
aI9061
aI15441
aI871
aI16188
aI2925
aI4974
aI9075
aI887
aI2937
aI891
aI7463
aI1174
aI5001
aI15715
aI13942
aI15249
aI2962
aI7662
aI7063
aI4668
aI2977
aI2988
aI5038
aI15517
aI15285
aI14762
aI8011
aI964
aI11207
aI11208
aI7114
aI5556
aI7116
aI15311
aI15315
aI14149
aI5080
aI5082
aI5084
aI3039
aI7675
aI7146
aI7147
aI1004
aI15186
aI15348
aI5114
aI1019
aI7166
aI14848
aI3075
aI3077
aI15371
aI7181
aI8968
aI15377
aI9235
aI3092
aI6318
aI16197
aI3102
aI5151
aI1056
aI6320
aI3107
aI4956
aI1067
aI7212
aI1069
aI1074
aI3123
aI7220
aI1078
aI3128
aI7231
aI1093
aI11336
aI3596
aI1102
aI7247
aI3153
aI3158
aI3160
aI15449
aI7264
aI1124
aI11366
aI6175
aI5225
aI2919
aI15470
aI3186
aI3191
aI5241
aI15482
aI1154
aI1155
aI15492
aI5255
aI3208
aI11402
aI3211
aI8904
aI15501
aI4973
aI9366
aI5271
aI7321
aI1903
aI1562
aI7330
aI3237
aI13478
aI3239
aI7337
aI7367
aI13489
aI9394
aI7347
aI3252
aI5301
aI5305
aI6587
aI5314
aI3268
aI11463
aI7372
aI3276
aI3284
aI15573
aI13612
aI9433
aI3292
aI3293
aI6693
aI9441
aI3298
aI4987
aI14561
aI15863
aI15592
aI7403
aI3308
aI8402
aI1264
aI1265
aI5363
aI13556
aI13557
aI7721
aI1272
aI16596
aI8746
aI15615
aI7544
aI7426
aI5381
aI1202
aI15625
aI3338
aI13581
aI7385
aI13597
aI1310
aI15649
aI1314
aI6454
aI3367
aI7464
aI220
aI11564
aI3373
aI5423
aI3376
aI5431
aI7490
aI7492
aI13878
aI3399
aI1353
aI3402
aI15692
aI7501
aI3407
aI7506
aI3415
aI15253
aI5468
aI14906
aI3422
aI5471
aI7522
aI8763
aI15717
aI11624
aI1385
aI1386
aI3437
aI15727
aI16616
aI11634
aI1400
aI1402
aI1405
aI1407
aI7744
aI1410
aI1412
aI3462
aI5298
aI3464
aI16620
aI5514
aI15255
aI9617
aI5523
aI11673
aI3483
aI7580
aI16551
aI1440
aI13731
aI3492
aI8436
aI4679
aI1454
aI15792
aI15794
aI1460
aI8777
aI6388
aI1467
aI1470
aI3519
aI1474
aI15265
aI1482
aI1483
aI13773
aI3534
aI15608
aI15826
aI13779
aI3540
aI11711
aI13782
aI7641
aI5594
aI1502
aI14740
aI5602
aI1507
aI1958
aI9710
aI5617
aI13907
aI14710
aI7671
aI5375
aI13690
aI7677
aI1535
aI7683
aI7685
aI7686
aI15879
aI940
aI9740
aI5647
aI13840
aI16362
aI13842
aI13843
aI5652
aI7701
aI9750
aI13850
aI3613
aI1566
aI13573
aI13856
aI15905
aI3619
aI4017
aI5673
aI7431
aI3735
aI13874
aI13875
aI5550
aI8509
aI11830
aI7735
aI14653
aI15930
aI5691
aI15932
aI15709
aI5696
aI3650
aI15942
aI2316
aI13898
aI14918
aI5710
aI15629
aI3666
aI13923
aI7768
aI3676
aI8805
aI13677
aI9826
aI1635
aI15972
aI3690
aI15979
aI1644
aI274
aI7793
aI3702
aI15295
aI7804
aI1661
aI8716
aI7809
aI3715
aI7816
aI16015
aI7826
aI9879
aI3738
aI1692
aI5789
aI6535
aI1701
aI7846
aI13937
aI3752
aI13993
aI16043
aI14004
aI12574
aI14006
aI3774
aI14015
aI5825
aI14018
aI1731
aI5829
aI7879
aI7880
aI5068
aI1738
aI5840
aI5841
aI5842
aI5843
aI3798
aI5582
aI1757
aI14046
aI15607
aI14049
aI16098
aI8827
aI7908
aI5863
aI5867
aI3820
aI1774
aI16111
aI1777
aI1778
aI7015
aI1780
aI5877
aI14070
aI16119
aI14074
aI3835
aI3837
aI12031
aI7939
aI16342
aI7943
aI1801
aI7947
aI7951
aI7952
aI6104
aI5763
aI1818
aI7963
aI3868
aI16160
aI12068
aI5926
aI8108
aI16173
aI7983
aI1841
aI7986
aI3891
aI7989
aI7994
aI7222
aI7996
aI14142
aI14645
aI16192
aI1858
aI8003
aI310
aI14151
aI3913
aI1867
aI8013
aI16216
aI16356
aI3935
aI16226
aI16228
aI16230
aI1897
aI16359
aI3949
aI14657
aI4413
aI12145
aI3961
aI8170
aI6014
aI8065
aI5997
aI15340
aI6026
aI1687
aI16268
aI1933
aI16281
aI8090
aI16283
aI14236
aI6047
aI1952
aI14244
aI10150
aI14247
aI16028
aI4012
aI4013
aI4015
aI8112
aI1969
aI8179
aI8117
aI13641
aI6072
aI14265
aI4026
aI14269
aI4030
aI1990
aI16329
aI4042
aI6092
aI2000
aI14670
aI4054
aI2008
aI8868
aI14300
aI2013
aI8158
aI2015
aI12258
aI14307
aI4568
aI14673
aI8168
aI7637
aI2027
aI6126
aI7848
aI14839
aI6131
aI6136
aI6137
aI15772
atRp6
ag2
((lp7
I4096
aI8192
aI6147
aI14340
aI6149
aI4102
aI4103
aI6160
aI10243
aI8878
aI8217
aI10266
aI8219
aI10268
aI14341
aI14369
aI14683
aI4137
aI8234
aI10284
aI4141
aI6193
aI14386
aI7177
aI13709
aI9481
aI12349
aI16447
aI4160
aI2116
aI69
aI14406
aI10314
aI10315
aI14412
aI2126
aI10321
aI2130
aI8275
aI6232
aI2138
aI2140
aI4190
aI12383
aI10437
aI10339
aI12389
aI14439
aI10345
aI8298
aI14443
aI10349
aI16496
aI113
aI10259
aI8308
aI14453
aI8311
aI5140
aI8314
aI2173
aI2177
aI10370
aI10372
aI14469
aI2182
aI10376
aI6281
aI6287
aI6288
aI10385
aI2195
aI6293
aI10390
aI4247
aI8344
aI8345
aI156
aI9971
aI10398
aI8351
aI9007
aI2210
aI6310
aI10408
aI170
aI10411
aI8366
aI8367
aI4272
aI16563
aI10420
aI10423
aI10424
aI5492
aI15691
aI16415
aI10428
aI190
aI2241
aI15051
aI6341
aI4295
aI16586
aI8395
aI10446
aI10447
aI4304
aI16593
aI4309
aI215
aI10457
aI14556
aI8413
aI8414
aI2272
aI10465
aI10467
aI10468
aI16613
aI2280
aI12524
aI16621
aI2287
aI4342
aI8439
aI10490
aI15743
aI14591
aI8448
aI8449
aI258
aI8451
aI10500
aI8457
aI2314
aI10510
aI6415
aI10513
aI8579
aI2329
aI6427
aI7920
aI4383
aI10532
aI14630
aI14631
aI5670
aI10542
aI2351
aI2353
aI10546
aI2355
aI10548
aI9950
aI15963
aI314
aI10013
aI10560
aI2369
aI10562
aI323
aI328
aI8589
aI10576
aI2386
aI6883
aI10583
aI8536
aI10585
aI8539
aI8542
aI14690
aI2403
aI10601
aI10603
aI9986
aI2414
aI6205
aI4466
aI14708
aI8566
aI376
aI2425
aI4475
aI8574
aI14719
aI6528
aI16448
aI4483
aI10629
aI14731
aI7234
aI8591
aI2449
aI2450
aI2452
aI9966
aI14539
aI14746
aI8605
aI2462
aI1776
aI418
aI8613
aI2471
aI425
aI427
aI4525
aI431
aI8625
aI5875
aI2484
aI6583
aI8632
aI8633
aI447
aI13654
aI454
aI458
aI9699
aI4560
aI8661
aI14806
aI10712
aI2521
aI152
aI6620
aI479
aI1105
aI491
aI6636
aI6226
aI494
aI4592
aI498
aI14815
aI8617
aI8700
aI509
aI2558
aI14847
aI2560
aI2561
aI6658
aI4621
aI8718
aI12816
aI14866
aI8729
aI8730
aI13743
aI14339
aI2595
aI4519
aI8745
aI14087
aI14911
aI8750
aI435
aI6709
aI14902
aI7605
aI15022
aI577
aI8772
aI2629
aI6727
aI2632
aI9999
aI6748
aI9772
aI612
aI8807
aI2665
aI10318
aI8813
aI4726
aI2682
aI15365
aI2685
aI2687
aI6785
aI6789
aI2694
aI649
aI8842
aI14066
aI6797
aI6802
aI660
aI15707
aI8859
aI4764
aI4765
aI675
aI15013
aI9297
aI15017
aI8547
aI4780
aI4782
aI2735
aI6833
aI4786
aI10525
aI10111
aI12990
aI14112
aI8899
aI9811
aI15047
aI14455
aI10080
aI8912
aI6873
aI4866
aI15067
aI8925
aI8927
aI2785
aI15075
aI10663
aI6887
aI10985
aI8317
aI2800
aI4849
aI6900
aI8951
aI6906
aI10391
aI11006
aI768
aI769
aI770
aI15109
aI4870
aI14465
aI16290
aI8972
aI9346
aI4879
aI11025
aI787
aI4885
aI792
aI10392
aI795
aI8960
aI4895
aI4896
aI8997
aI806
aI15836
aI6954
aI2863
aI9012
aI4919
aI9016
aI6970
aI4923
aI2876
aI13117
aI2882
aI4937
aI2890
aI4940
aI9037
aI2899
aI15189
aI4954
aI16528
aI9058
aI14418
aI9066
aI8679
aI15848
aI6291
aI7028
aI15222
aI9082
aI15735
aI4990
aI4991
aI4993
aI9090
aI4999
aI2955
aI2961
aI5011
aI7060
aI13205
aI918
aI922
aI5024
aI15266
aI5032
aI4252
aI7082
aI6642
aI5039
aI10397
aI7089
aI946
aI947
aI954
aI961
aI16203
aI13814
aI9159
aI9161
aI10402
aI975
aI15314
aI15319
aI3032
aI7130
aI10063
aI7134
aI5088
aI5089
aI3044
aI3045
aI5095
aI7145
aI10066
aI7150
aI15869
aI1008
aI6654
aI1020
aI13317
aI3585
aI9224
aI5129
aI3083
aI5132
aI5133
aI15375
aI9234
aI13332
aI7189
aI10073
aI10415
aI9245
aI9247
aI5153
aI9250
aI9251
aI7204
aI9255
aI8845
aI10077
aI3122
aI1076
aI1079
aI1080
aI15721
aI7233
aI3138
aI5187
aI3142
aI1095
aI1097
aI16567
aI10334
aI3149
aI9296
aI11345
aI14235
aI9302
aI7258
aI7260
aI7334
aI15888
aI3170
aI3172
aI7273
aI1131
aI9333
aI1147
aI5249
aI5250
aI9347
aI3206
aI7304
aI7310
aI15504
aI9362
aI9364
aI9791
aI7322
aI5278
aI1183
aI1186
aI5284
aI3238
aI9383
aI3240
aI15529
aI5290
aI10439
aI7343
aI1206
aI5309
aI5310
aI13884
aI10443
aI9415
aI15560
aI9588
aI3277
aI13859
aI9428
aI7386
aI6352
aI9442
aI13541
aI1258
aI3307
aI5357
aI3311
aI5361
aI9459
aI11509
aI15606
aI9464
aI8063
aI3325
aI15614
aI9472
aI3329
aI1285
aI3336
aI5385
aI16478
aI3343
aI7440
aI13588
aI5409
aI7460
aI13605
aI5420
aI7470
aI10461
aI7473
aI7474
aI9524
aI13623
aI7480
aI7481
aI10464
aI3395
aI13637
aI15686
aI15687
aI15689
aI7498
aI3403
aI1356
aI9550
aI15696
aI15697
aI5458
aI8419
aI3412
aI1365
aI9558
aI3418
aI13659
aI13664
aI15713
aI15714
aI1380
aI1382
aI9575
aI13673
aI1394
aI1396
aI9589
aI7543
aI9120
aI16276
aI3647
aI13692
aI13694
aI3455
aI1409
aI5506
aI3459
aI5517
aI9618
aI9624
aI1434
aI7584
aI1443
aI7588
aI9638
aI15785
aI7594
aI13739
aI10414
aI9648
aI9800
aI1458
aI7603
aI15797
aI9654
aI13752
aI3515
aI1469
aI7616
aI5569
aI5574
aI4891
aI3530
aI7629
aI15822
aI9683
aI9687
aI9692
aI9696
aI4347
aI15844
aI13798
aI5607
aI7656
aI9705
aI5612
aI15613
aI13811
aI9718
aI3576
aI15866
aI3579
aI9725
aI15870
aI5632
aI1537
aI1539
aI13829
aI9735
aI9736
aI7689
aI13835
aI2306
aI3599
aI9744
aI7697
aI5651
aI10554
aI9756
aI7429
aI13858
aI1571
aI1572
aI15910
aI9137
aI9768
aI13866
aI7723
aI1580
aI13871
aI9139
aI1588
aI13877
aI3639
aI15931
aI7740
aI13887
aI9792
aI9795
aI15940
aI15943
aI3656
aI9804
aI7757
aI7758
aI9810
aI7763
aI15125
aI14606
aI1622
aI9815
aI9819
aI7773
aI15968
aI15632
aI15971
aI1642
aI15194
aI13933
aI16217
aI13935
aI3698
aI5750
aI8809
aI15992
aI15994
aI5755
aI16255
aI1665
aI1668
aI1670
aI3720
aI9866
aI13963
aI5772
aI13967
aI9873
aI16020
aI9883
aI5791
aI3744
aI1697
aI9891
aI9892
aI14278
aI3751
aI9897
aI9842
aI7854
aI9903
aI9904
aI16049
aI7861
aI1718
aI7864
aI14011
aI9919
aI5824
aI9922
aI6091
aI9924
aI7882
aI7887
aI7891
aI3800
aI9508
aI9946
aI14287
aI5852
aI5854
aI15653
aI7906
aI14052
aI3815
aI5870
aI5871
aI3824
aI14065
aI5874
aI1779
aI7924
aI7926
aI9976
aI3834
aI14975
aI14076
aI9983
aI7938
aI16131
aI8833
aI7944
aI3850
aI9995
aI3855
aI14096
aI9176
aI13760
aI14102
aI3865
aI15274
aI3869
aI10016
aI7969
aI5923
aI5929
aI7978
aI8513
aI14524
aI10031
aI16177
aI7992
aI3899
aI10046
aI10549
aI14304
aI16194
aI1859
aI10053
aI10059
aI15747
aI3919
aI9528
aI8018
aI10067
aI10068
aI10069
aI1879
aI3928
aI12121
aI8027
aI4410
aI15333
aI3936
aI10081
aI8034
aI16227
aI10085
aI10090
aI12139
aI14994
aI16246
aI1919
aI6018
aI8067
aI8071
aI8077
aI14228
aI6043
aI15043
aI4002
aI14248
aI16297
aI14251
aI4016
aI10162
aI16309
aI4022
aI6135
aI16315
aI10065
aI13643
aI10182
aI10185
aI10186
aI10187
aI10188
aI8143
aI16337
aI6819
aI10198
aI2007
aI14296
aI8160
aI16354
aI10216
aI2028
aI12269
aI4079
aI10227
aI8180
aI8181
aI2039
aI10233
aI6141
atRp8
ag2
((lp9
I10701
aI8195
aI16388
aI10245
aI16391
aI14347
aI2061
aI16398
aI4113
aI16387
aI16409
aI4124
aI6173
aI8223
aI16416
aI4784
aI3419
aI8228
aI16424
aI10026
aI16428
aI15026
aI10288
aI10290
aI4147
aI6197
aI6201
aI61
aI8254
aI9345
aI8266
aI8268
aI10317
aI79
aI85
aI10328
aI2137
aI94
aI95
aI10340
aI10341
aI10342
aI8295
aI4200
aI14445
aI10350
aI8303
aI10354
aI10942
aI14456
aI10943
aI14460
aI10367
aI8321
aI130
aI4230
aI6279
aI16522
aI4239
aI14480
aI14481
aI10388
aI16534
aI4248
aI16538
aI10607
aI10400
aI16545
aI10403
aI10928
aI9962
aI2218
aI2220
aI16557
aI14510
aI175
aI179
aI181
aI10422
aI14025
aI2235
aI6335
aI15964
aI194
aI16075
aI16582
aI8391
aI16585
aI10442
aI14540
aI7885
aI9934
aI14551
aI6360
aI16420
aI9935
aI16606
aI4325
aI4326
aI6375
aI15147
aI8431
aI14578
aI8437
aI250
aI16635
aI6396
aI6399
aI2304
aI14596
aI10501
aI2310
aI6409
aI14609
aI10520
aI2330
aI10523
aI14620
aI287
aI288
aI289
aI10530
aI2340
aI8485
aI6440
aI10538
aI10539
aI8493
aI14640
aI305
aI306
aI10552
aI6457
aI10555
aI6460
aI2101
aI320
aI7563
aI10564
aI8519
aI4428
aI14669
aI14672
aI10579
aI10581
aI8534
aI9956
aI6491
aI10589
aI10593
aI355
aI14693
aI358
aI13713
aI10642
aI2109
aI10611
aI4468
aI6517
aI10616
aI377
aI8573
aI4479
aI2433
aI386
aI10628
aI10631
aI10635
aI10639
aI6544
aI12696
aI402
aI10644
aI4504
aI7515
aI10652
aI14756
aI14759
aI6568
aI10665
aI2475
aI4524
aI754
aI4530
aI4533
aI2486
aI2489
aI10683
aI14780
aI14781
aI12735
aI448
aI10690
aI10273
aI2502
aI15777
aI10697
aI10698
aI10699
aI4556
aI2509
aI2513
aI6615
aI6616
aI8665
aI8666
aI14415
aI476
aI10718
aI2529
aI14819
aI10725
aI10729
aI14826
aI10732
aI15974
aI6909
aI4593
aI2546
aI4596
aI503
aI2552
aI10746
aI2555
aI4604
aI8173
aI8706
aI10757
aI10758
aI6059
aI14856
aI2569
aI10766
aI10769
aI532
aI535
aI10776
aI14338
aI10781
aI10784
aI10785
aI10789
aI2598
aI551
aI10794
aI10796
aI4653
aI10799
aI8752
aI13929
aI6706
aI14817
aI10804
aI2142
aI4665
aI573
aI10814
aI10823
aI4682
aI2638
aI4688
aI8787
aI2645
aI4694
aI10839
aI10842
aI10844
aI2655
aI2656
aI4705
aI8802
aI611
aI613
aI6758
aI10855
aI6588
aI2667
aI621
aI623
aI10865
aI8820
aI629
aI8822
aI10871
aI6776
aI6777
aI9663
aI10878
aI12927
aI10882
aI10884
aI10885
aI10886
aI2695
aI14985
aI4747
aI10892
aI2701
aI6798
aI655
aI10896
aI4754
aI10902
aI10903
aI6811
aI10908
aI15813
aI6816
aI3184
aI10915
aI10916
aI6598
aI15014
aI6824
aI8877
aI10927
aI2736
aI10930
aI4788
aI693
aI6841
aI10939
aI6846
aI2751
aI10946
aI10947
aI2757
aI6859
aI4812
aI2767
aI2168
aI10965
aI726
aI727
aI15071
aI2784
aI737
aI2787
aI742
aI4839
aI4843
aI8945
aI2802
aI3539
aI6905
aI762
aI16575
aI2858
aI8961
aI8962
aI6238
aI4869
aI6436
aI15097
aI4880
aI3544
aI15491
aI4900
aI15141
aI15142
aI10716
aI4906
aI2859
aI6960
aI3505
aI15160
aI827
aI16304
aI832
aI6978
aI4933
aI481
aI16646
aI9033
aI14040
aI4939
aI15180
aI6989
aI13138
aI6999
aI9049
aI9053
aI863
aI9063
aI9068
aI10293
aI2929
aI4984
aI14484
aI16601
aI7035
aI893
aI15230
aI6976
aI899
aI10049
aI9096
aI13805
aI9105
aI5955
aI7061
aI9305
aI2973
aI927
aI5027
aI9713
aI5959
aI10740
aI10738
aI14898
aI15286
aI5049
aI9146
aI9150
aI9155
aI15862
aI7113
aI3101
aI5071
aI504
aI978
aI7126
aI9179
aI993
aI5091
aI999
aI5097
aI3053
aI9199
aI5105
aI3064
aI15355
aI5973
aI3073
aI15378
aI9219
aI7173
aI3081
aI1034
aI5138
aI1043
aI3094
aI9732
aI15389
aI1059
aI10809
aI15399
aI3114
aI9261
aI9262
aI10674
aI3120
aI5749
aI1077
aI9055
aI15420
aI15429
aI7239
aI15434
aI1100
aI7248
aI7249
aI1550
aI7257
aI7259
aI16063
aI7263
aI9314
aI7271
aI1130
aI15890
aI9328
aI15476
aI5239
aI10772
aI14527
aI9340
aI7360
aI7298
aI7299
aI5253
aI15494
aI16578
aI7320
aI1179
aI3234
aI7333
aI5286
aI15900
aI15530
aI8050
aI3251
aI9403
aI9724
aI7358
aI5311
aI3264
aI1217
aI13506
aI5315
aI5316
aI10102
aI15559
aI13516
aI7373
aI9421
aI9424
aI7032
aI9429
aI5334
aI7390
aI14885
aI5346
aI7395
aI5348
aI3301
aI5350
aI15569
aI3304
aI8839
aI10203
aI3313
aI13555
aI13558
aI9769
aI9470
aI10453
aI5393
aI9491
aI3351
aI5401
aI15651
aI1317
aI1318
aI3369
aI3372
aI10802
aI1326
aI9519
aI15664
aI9522
aI5430
aI9530
aI13630
aI15679
aI5441
aI13636
aI9541
aI3398
aI7499
aI1357
aI1358
aI9551
aI3408
aI9553
aI3410
aI13652
aI6713
aI9560
aI5465
aI7514
aI5467
aI9565
aI9566
aI3425
aI3426
aI15719
aI9576
aI13675
aI10813
aI7400
aI15732
aI1397
aI15734
aI1404
aI7550
aI13698
aI5508
aI3463
aI1419
aI5521
aI3475
aI9620
aI5533
aI7585
aI15779
aI9798
aI10140
aI5548
aI7599
aI5552
aI1457
aI7602
aI9651
aI9655
aI1464
aI9657
aI7611
aI1471
aI5568
aI9666
aI7621
aI3536
aI5587
aI10830
aI5592
aI9691
aI6051
aI7646
aI13794
aI3557
aI5609
aI9706
aI5613
aI13807
aI7665
aI9714
aI7670
aI7672
aI7764
aI15867
aI3580
aI1538
aI1963
aI1540
aI10838
aI15881
aI13838
aI10157
aI1553
aI1554
aI1556
aI1557
aI7707
aI7708
aI3615
aI3617
aI14987
aI7717
aI15911
aI1577
aI13868
aI7732
aI13879
aI9793
aI1604
aI3654
aI9825
aI5706
aI10167
aI14965
aI5716
aI15957
aI3674
aI5724
aI1631
aI13920
aI5729
aI7778
aI8821
aI9408
aI3688
aI7785
aI9836
aI7791
aI13936
aI3701
aI1655
aI5753
aI16319
aI1660
aI9853
aI15998
aI1666
aI16007
aI9867
aI8549
aI10178
aI1681
aI3739
aI10522
aI1694
aI16034
aI11940
aI1702
aI7847
aI5802
aI3755
aI3756
aI7857
aI7859
aI7863
aI1653
aI3782
aI16071
aI1737
aI3786
aI14027
aI5837
aI7886
aI3791
aI5844
aI5845
aI11990
aI9943
aI9944
aI5849
aI14045
aI16094
aI5856
aI7907
aI5860
aI16102
aI12007
aI5866
aI3819
aI5868
aI5872
aI16085
aI7927
aI16017
aI9978
aI6783
aI9980
aI1797
aI5900
aI5762
aI7955
aI10664
aI5915
aI3870
aI14299
aI16166
aI1834
aI1835
aI7984
aI14129
aI5939
aI5946
aI5950
aI10048
aI5953
aI10050
aI3907
aI8005
aI15329
aI5966
aI10893
aI5968
aI16210
aI14163
aI7632
aI1877
aI5974
aI10071
aI10360
aI5978
aI5980
aI14173
aI14174
aI5777
aI16232
aI10556
aI8046
aI14191
aI14192
aI3953
aI6002
aI16244
aI1910
aI10104
aI14203
aI8061
aI1923
aI10907
aI10120
aI8074
aI8075
aI3981
aI3983
aI3986
aI3992
aI8092
aI10142
aI3999
aI1953
aI4763
aI16294
aI9201
aI4011
aI6060
aI6061
aI6063
aI1968
aI6067
aI4020
aI8119
aI8123
aI4031
aI6082
aI10179
aI4036
aI6134
aI10747
aI10193
aI10705
aI8148
aI16343
aI4057
aI2011
aI10204
aI10205
aI1360
aI6114
aI6118
aI6119
aI16039
aI14934
aI6125
aI10225
aI2037
aI2038
aI10231
aI15700
aI6138
atRp10
ag2
((lp11
I10240
aI10241
aI10242
aI4100
aI8199
aI4105
aI6154
aI10251
aI6888
aI10255
aI12632
aI4117
aI4121
aI8879
aI16414
aI10271
aI6176
aI4133
aI10280
aI8540
aI16427
aI2092
aI6189
aI2094
aI10287
aI14384
aI2098
aI10291
aI4152
aI2740
aI6202
aI8251
aI10
aI16446
aI10307
aI10310
aI4168
aI10316
aI6221
aI6223
aI82
aI6227
aI14009
aI6241
aI14434
aI5527
aI16486
aI7185
aI16488
aI6249
aI16490
aI8301
aI16499
aI14452
aI2165
aI8312
aI14459
aI362
aI8320
aI6273
aI14466
aI4228
aI14478
aI4241
aI14483
aI151
aI14489
aI3439
aI16541
aI4256
aI14363
aI7575
aI6313
aI177
aI2230
aI184
aI4281
aI16571
aI6332
aI6334
aI4287
aI10433
aI6338
aI16466
aI8390
aI16583
aI14538
aI6519
aI6353
aI16442
aI4814
aI2262
aI4312
aI8409
aI14942
aI221
aI6181
aI14562
aI2275
aI2276
aI16618
aI8430
aI13693
aI6385
aI243
aI14580
aI8737
aI6868
aI8443
aI15402
aI15061
aI256
aI9965
aI260
aI8453
aI6406
aI14380
aI5847
aI15064
aI2323
aI277
aI14621
aI2334
aI14043
aI3121
aI8492
aI4400
aI6449
aI12595
aI309
aI4407
aI312
aI313
aI4411
aI2364
aI395
aI14667
aI14668
aI4429
aI2382
aI2383
aI6481
aI340
aI8535
aI2392
aI2396
aI8541
aI9218
aI2408
aI2410
aI6507
aI2416
aI2417
aI2058
aI14707
aI15970
aI375
aI6520
aI6521
aI12672
aI8581
aI2440
aI2443
aI8588
aI14733
aI2446
aI4514
aI12688
aI2455
aI8603
aI2461
aI9220
aI6559
aI8608
aI417
aI6562
aI7238
aI6566
aI14761
aI426
aI8620
aI6576
aI6577
aI2485
aI9972
aI8634
aI14779
aI10244
aI9973
aI2499
aI16118
aI15436
aI15095
aI12154
aI12756
aI469
aI4570
aI4581
aI2535
aI6632
aI4585
aI15442
aI8687
aI14419
aI2556
aI8702
aI8703
aI4612
aI519
aI6666
aI6669
aI6672
aI12818
aI4627
aI8727
aI537
aI14874
aI14876
aI4640
aI545
aI2597
aI4649
aI4650
aI8749
aI6705
aI14899
aI2615
aI568
aI569
aI10180
aI2622
aI4673
aI14914
aI4676
aI6725
aI582
aI15116
aI586
aI9997
aI4690
aI14777
aI602
aI10843
aI604
aI4702
aI6751
aI4704
aI8801
aI2658
aI15462
aI4711
aI14953
aI14957
aI4317
aI13660
aI638
aI6788
aI10006
aI646
aI648
aI16151
aI14988
aI8846
aI4751
aI4752
aI15811
aI2708
aI6805
aI662
aI15471
aI15006
aI7280
aI10012
aI15018
aI14821
aI2733
aI6831
aI15024
aI692
aI2741
aI695
aI8889
aI2746
aI10940
aI10941
aI8894
aI16501
aI2759
aI15052
aI2766
aI4815
aI15480
aI4820
aI6869
aI728
aI8923
aI2780
aI8928
aI738
aI2792
aI15081
aI3881
aI15096
aI4564
aI4858
aI8955
aI4868
aI3201
aI4876
aI782
aI8977
aI8978
aI1049
aI9689
aI4888
aI9348
aI13786
aI15135
aI8995
aI15140
aI1158
aI6951
aI11051
aI4908
aI4909
aI9006
aI15151
aI816
aI16179
aI13110
aI4921
aI15839
aI2878
aI5941
aI834
aI6979
aI14698
aI6983
aI9032
aI6985
aI842
aI15179
aI4948
aI15161
aI7000
aI2905
aI858
aI2907
aI2911
aI4960
aI866
aI10043
aI2924
aI7021
aI885
aI7657
aI9084
aI4989
aI894
aI895
aI3905
aI9099
aI16136
aI8209
aI917
aI9111
aI920
aI2971
aI7070
aI5025
aI9122
aI14491
aI932
aI2981
aI935
aI5034
aI9132
aI943
aI11185
aI9138
aI7093
aI9716
aI3002
aI15519
aI10058
aI3006
aI959
aI5057
aI3020
aI3021
aI5075
aI16604
aI5077
aI11224
aI16548
aI9182
aI16346
aI9186
aI9188
aI7141
aI14161
aI9193
aI1002
aI5107
aI7158
aI3063
aI15353
aI1018
aI1025
aI5122
aI5123
aI5124
aI7174
aI9223
aI3080
aI5131
aI3087
aI15376
aI5137
aI9238
aI3097
aI3098
aI10074
aI1055
aI15396
aI5157
aI9254
aI6321
aI1066
aI5167
aI7217
aI5170
aI10265
aI7229
aI15424
aI9056
aI3139
aI1094
aI9399
aI13388
aI5198
aI5199
aI1106
aI1107
aI7253
aI15447
aI1114
aI9307
aI3165
aI8379
aI5222
aI9319
aI8380
aI10087
aI9324
aI1133
aI1135
aI5232
aI14184
aI5237
aI3190
aI7288
aI3193
aI8383
aI1153
aI5252
aI13446
aI15497
aI5258
aI1166
aI10093
aI9363
aI3224
aI5658
aI3231
aI15521
aI5283
aI9385
aI15038
aI3243
aI10098
aI13486
aI5299
aI3255
aI10133
aI5317
aI3270
aI4641
aI7371
aI5324
aI3279
aI7379
aI3285
aI11481
aI1242
aI14861
aI13532
aI3962
aI9438
aI15588
aI1253
aI9449
aI7405
aI7406
aI3312
aI13554
aI3315
aI1268
aI15611
aI9469
aI1286
aI9480
aI10114
aI1296
aI16198
aI1302
aI3352
aI10117
aI13601
aI9507
aI9510
aI15656
aI1321
aI7469
aI2269
aI13619
aI5429
aI3383
aI3384
aI9529
aI15677
aI3390
aI5440
aI9538
aI3396
aI9542
aI9546
aI7500
aI7503
aI7504
aI15698
aI3411
aI9559
aI14564
aI1372
aI15397
aI9568
aI5476
aI7527
aI5482
aI3435
aI1388
aI1597
aI9587
aI13684
aI14910
aI7542
aI9592
aI7546
aI11645
aI5503
aI1411
aI7557
aI15751
aI5513
aI13706
aI15738
aI13708
aI1421
aI5520
aI9621
aI1431
aI16158
aI15771
aI9628
aI10277
aI9634
aI7590
aI9640
aI13740
aI5551
aI13744
aI15262
aI15799
aI9665
aI15810
aI13763
aI5578
aI9676
aI1487
aI5584
aI3537
aI3538
aI1492
aI3545
aI3546
aI7643
aI5599
aI3552
aI9697
aI9698
aI3556
aI13800
aI13801
aI9707
aI9709
aI13565
aI13808
aI5618
aI1524
aI15861
aI9939
aI13815
aI1530
aI9727
aI9728
aI9729
aI13828
aI9733
aI13830
aI10253
aI13832
aI5646
aI7695
aI9745
aI13844
aI5655
aI6404
aI9754
aI5722
aI15902
aI7712
aI5668
aI5669
aI15917
aI5678
aI7727
aI3637
aI7734
aI5687
aI3641
aI9786
aI9788
aI3645
aI9141
aI1603
aI1606
aI7753
aI13922
aI7761
aI9813
aI1623
aI9816
aI9818
aI3675
aI14266
aI3679
aI1633
aI1634
aI13928
aI1641
aI1651
aI9846
aI3705
aI3708
aI9856
aI9857
aI7810
aI13955
aI7813
aI3719
aI13960
aI9865
aI5776
aI9874
aI13972
aI9878
aI7832
aI9881
aI9882
aI3740
aI9886
aI9888
aI13988
aI3749
aI3750
aI5801
aI13994
aI9905
aI9906
aI15987
aI3767
aI3768
aI9913
aI3770
aI13599
aI5826
aI5827
aI5828
aI1734
aI9927
aI5833
aI3788
aI9937
aI16083
aI1749
aI16086
aI3799
aI9742
aI9947
aI1756
aI9951
aI1760
aI16242
aI5858
aI1763
aI1766
aI5865
aI7914
aI9964
aI3821
aI9968
aI16114
aI5876
aI1781
aI9974
aI1786
aI14080
aI14081
aI14858
aI5896
aI1803
aI7948
aI3853
aI9998
aI16500
aI1808
aI1813
aI1814
aI10007
aI8836
aI1820
aI8154
aI10014
aI14113
aI10018
aI14115
aI14116
aI10023
aI10025
aI3882
aI9863
aI10030
aI7987
aI7988
aI14133
aI5942
aI14137
aI10042
aI12091
aI10045
aI8001
aI10051
aI8004
aI1861
aI10054
aI10056
aI8009
aI8010
aI1873
aI16213
aI14169
aI1882
aI14171
aI1884
aI1886
aI5991
aI10088
aI16233
aI1901
aI14998
aI10097
aI3954
aI10100
aI10101
aI9679
aI1914
aI3963
aI8062
aI3968
aI3970
aI10115
aI1925
aI10118
aI10220
aI12172
aI13679
aI10126
aI14223
aI9880
aI10131
aI10132
aI1941
aI8930
aI1947
aI16284
aI3998
aI1951
aI8176
aI10148
aI14245
aI4008
aI1965
aI1966
aI10159
aI16371
aI6068
aI6069
aI16310
aI15887
aI6132
aI1978
aI1979
aI10172
aI8126
aI10177
aI1988
aI4037
aI10183
aI7636
aI4840
aI16340
aI16341
aI6102
aI4058
aI8155
aI4062
aI10212
aI4069
aI14648
aI10219
aI6124
aI2032
aI14322
aI9555
aI4084
aI14325
aI13775
aI10232
aI4436
aI16379
aI2044
aI4095
atRp12
ag2
((lp13
I14336
aI2052
aI14343
aI7170
aI6158
aI2064
aI6161
aI16403
aI14357
aI8214
aI4119
aI4120
aI14362
aI4123
aI14682
aI8222
aI14367
aI16417
aI14370
aI4131
aI2087
aI4136
aI3079
aI8237
aI6192
aI14388
aI53
aI15369
aI7776
aI14394
aI59
aI60
aI6207
aI6210
aI4167
aI2120
aI5965
aI4171
aI16460
aI16461
aI78
aI8271
aI8272
aI10322
aI2131
aI8277
aI14424
aI90
aI9231
aI14428
aI8285
aI14431
aI8208
aI6242
aI4197
aI8296
aI10346
aI4203
aI14446
aI111
aI8869
aI15825
aI14393
aI16503
aI4217
aI14458
aI16064
aI8322
aI4227
aI16516
aI16313
aI14017
aI138
aI4235
aI706
aI15144
aI8336
aI5144
aI8343
aI8346
aI8347
aI14494
aI2207
aI15387
aI14505
aI13682
aI7197
aI2224
aI16562
aI7407
aI10421
aI16566
aI15004
aI16570
aI2236
aI2240
aI6337
aI2243
aI16580
aI16581
aI6342
aI6177
aI8397
aI8398
aI16591
aI4306
aI4307
aI14548
aI2263
aI8408
aI217
aI15878
aI6369
aI2274
aI6374
aI2279
aI2281
aI4331
aI6380
aI14573
aI2286
aI381
aI8432
aI14376
aI16630
aI251
aI10492
aI6397
aI4441
aI255
aI4352
aI13696
aI9259
aI6407
aI6411
aI2317
aI272
aI4824
aI275
aI14612
aI6422
aI7215
aI1754
aI14624
aI8487
aI2344
aI297
aI298
aI4395
aI2348
aI6445
aI2350
aI303
aI2352
aI8498
aI15411
aI8330
aI14649
aI2365
aI6463
aI2368
aI321
aI324
aI6470
aI14666
aI333
aI335
aI4432
aI14677
aI3129
aI14680
aI2788
aI8538
aI349
aI2401
aI2402
aI14694
aI4455
aI16168
aI14396
aI363
aI6508
aI6510
aI8560
aI13924
aI6515
aI8565
aI5127
aI2429
aI4480
aI8577
aI2435
aI4484
aI8582
aI12679
aI4489
aI4492
aI2445
aI6548
aI6551
aI4505
aI411
aI413
aI6561
aI14754
aI419
aI4516
aI8615
aI2474
aI16455
aI2478
aI6575
aI7240
aI14772
aI4536
aI441
aI10684
aI14782
aI14745
aI14785
aI6595
aI9515
aI8609
aI4555
aI4562
aI8659
aI14804
aI12757
aI2525
aI2527
aI4577
aI485
aI486
aI487
aI14824
aI6637
aI14830
aI7933
aI501
aI8694
aI505
aI8698
aI8704
aI10753
aI6660
aI517
aI12807
aI521
aI2570
aI6667
aI4620
aI2574
aI8720
aI16472
aI530
aI15107
aI2580
aI4629
aI2582
aI4633
aI4186
aI15362
aI8739
aI2600
aI555
aI560
aI8754
aI2611
aI566
aI10807
aI9498
aI14912
aI14917
aI8774
aI16481
aI6728
aI2633
aI4684
aI14776
aI10835
aI14932
aI14940
aI6749
aI6750
aI16485
aI8800
aI8803
aI6756
aI4710
aI618
aI14958
aI8545
aI14960
aI8817
aI3976
aI6773
aI14966
aI6775
aI14969
aI2154
aI639
aI5886
aI6251
aI6593
aI8840
aI651
aI14989
aI4750
aI7833
aI658
aI659
aI14105
aI10904
aI4762
aI2716
aI6813
aI671
aI10917
aI12967
aI682
aI15019
aI6832
aI6024
aI15853
aI696
aI6843
aI4800
aI8992
aI8898
aI15048
aI6857
aI6860
aI722
aI724
aI4821
aI14457
aI2776
aI729
aI6876
aI5242
aI6878
aI7291
aI15076
aI8933
aI8934
aI13777
aI13032
aI8937
aI15086
aI15089
aI8072
aI4853
aI15094
aI4863
aI13059
aI8964
aI6917
aI15110
aI16513
aI8974
aI6928
aI786
aI15123
aI7982
aI791
aI2841
aI794
aI6942
aI2848
aI802
aI803
aI2853
aI6952
aI811
aI16178
aI814
aI9009
aI11058
aI16285
aI2873
aI4922
aI4234
aI15168
aI15169
aI14475
aI2884
aI4935
aI6986
aI843
aI15184
aI4945
aI6234
aI6997
aI2902
aI856
aI2906
aI14101
aI861
aI6629
aI2912
aI4582
aI4972
aI4978
aI4979
aI2932
aI14896
aI5268
aI15227
aI4988
aI2942
aI7040
aI7043
aI4998
aI2951
aI2954
aI2956
aI11149
aI7054
aI8685
aI11154
aI9107
aI9115
aI5021
aI7074
aI4251
aI3569
aI5036
aI13810
aI7086
aI2992
aI7091
aI9142
aI7097
aI3003
aI7101
aI5054
aI16126
aI962
aI15300
aI3014
aI5063
aI970
aI3019
aI3022
aI3917
aI9171
aI9172
aI7125
aI983
aI9239
aI3033
aI15322
aI987
aI7133
aI3040
aI4944
aI11234
aI13819
aI5093
aI998
aI6993
aI1001
aI5098
aI3051
aI7149
aI9203
aI5110
aI9207
aI5113
aI11260
aI13310
aI1023
aI7168
aI13314
aI513
aI9225
aI13322
aI1035
aI7183
aI7191
aI1048
aI9241
aI9243
aI1053
aI14853
aI9392
aI15395
aI7205
aI9258
aI5163
aI15405
aI7005
aI5168
aI7218
aI6446
aI9270
aI11321
aI9275
aI9276
aI5181
aI15422
aI7691
aI5190
aI13383
aI1096
aI1098
aI15439
aI1104
aI9400
aI15108
aI9308
aI5215
aI3169
aI15464
aI9321
aI9322
aI7276
aI5230
aI15473
aI1138
aI5240
aI6676
aI3194
aI5243
aI15486
aI1151
aI15488
aI14528
aI3204
aI9354
aI5259
aI15178
aI9360
aI16050
aI15555
aI1172
aI9367
aI1177
aI1178
aI1180
aI1181
aI3232
aI7329
aI15338
aI1189
aI1190
aI15527
aI9384
aI1193
aI13715
aI7340
aI9074
aI7344
aI15537
aI1205
aI3254
aI5304
aI15079
aI9405
aI1219
aI7370
aI9419
aI14089
aI5325
aI15567
aI16135
aI15481
aI13524
aI7033
aI9434
aI11486
aI1248
aI6179
aI15587
aI9444
aI9446
aI9448
aI8060
aI9450
aI1263
aI9456
aI9457
aI16595
aI15604
aI15609
aI13563
aI5372
aI1280
aI15618
aI14891
aI16205
aI7434
aI9484
aI9488
aI15637
aI6361
aI7450
aI5404
aI15578
aI7454
aI1312
aI5090
aI3362
aI15865
aI3364
aI7461
aI5414
aI9511
aI15657
aI9095
aI1324
aI9455
aI1329
aI13618
aI6250
aI3382
aI9527
aI1337
aI3386
aI15675
aI15584
aI15682
aI6027
aI8758
aI5447
aI3400
aI7497
aI5452
aI9549
aI16269
aI1362
aI7508
aI1366
aI1367
aI15704
aI9561
aI9562
aI15711
aI3424
aI9570
aI9573
aI5478
aI14225
aI9579
aI5485
aI3438
aI1391
aI9585
aI3442
aI5491
aI5493
aI13686
aI5501
aI9600
aI5505
aI13699
aI13889
aI9609
aI9614
aI7567
aI15760
aI9619
aI6382
aI13721
aI1435
aI3489
aI3491
aI9636
aI3497
aI3502
aI7069
aI7600
aI15796
aI3509
aI13750
aI1463
aI1465
aI1466
aI13755
aI7618
aI13765
aI7626
aI5585
aI15939
aI1495
aI15835
aI3548
aI15838
aI13795
aI1511
aI1513
aI15271
aI7661
aI13806
aI7663
aI13809
aI7666
aI7667
aI1527
aI1529
aI5626
aI8447
aI5638
aI15880
aI13834
aI1547
aI15884
aI1552
aI5650
aI3604
aI15278
aI7702
aI15599
aI14237
aI14495
aI6872
aI5677
aI3631
aI15533
aI13876
aI15929
aI13885
aI1599
aI11840
aI1601
aI8459
aI3657
aI13901
aI3663
aI1616
aI15954
aI15956
aI3600
aI7767
aI1624
aI1625
aI7771
aI13918
aI1632
aI4828
aI8806
aI5735
aI5736
aI5738
aI15980
aI15981
aI5742
aI5743
aI13938
aI13939
aI15989
aI7798
aI3704
aI3707
aI7805
aI7807
aI13953
aI13954
aI13958
aI6081
aI16008
aI14632
aI5771
aI1676
aI9154
aI8512
aI3732
aI3734
aI1689
aI7834
aI1693
aI13982
aI13985
aI1698
aI1699
aI3748
aI13989
aI16040
aI7849
aI6808
aI9901
aI5810
aI14005
aI5814
aI7869
aI13941
aI14016
aI9504
aI16079
aI1744
aI3795
aI11994
aI9167
aI16092
aI16093
aI3806
aI14048
aI14055
aI5864
aI13607
aI7916
aI4392
aI16116
aI5880
aI15316
aI16124
aI9981
aI3838
aI2005
aI5890
aI6443
aI16132
aI14977
aI14088
aI4396
aI14091
aI5904
aI14098
aI3859
aI12052
aI4398
aI5911
aI3864
aI1817
aI14107
aI3874
aI7973
aI10024
aI14723
aI14125
aI12078
aI16175
aI14314
aI14130
aI3893
aI7990
aI14135
aI3896
aI7993
aI3903
aI14646
aI3912
aI13964
aI10061
aI16207
aI1872
aI8017
aI1876
aI16215
aI14168
aI3929
aI16222
aI16225
aI14177
aI3939
aI14180
aI9191
aI16236
aI14197
aI8054
aI6010
aI6012
aI14205
aI14206
aI4416
aI1928
aI1931
aI13634
aI14222
aI1936
aI1937
aI14229
aI6464
aI8091
aI1949
aI16287
aI1954
aI16295
aI4009
aI16300
aI16370
aI4014
aI6066
aI8120
aI6073
aI14273
aI14276
aI16325
aI8134
aI16327
aI16328
aI8137
aI16330
aI4044
aI4047
aI5795
aI10197
aI12249
aI4059
aI6108
aI8159
aI8161
aI10214
aI6120
aI14313
aI2026
aI16363
aI4080
aI2034
aI9214
aI4086
aI8184
aI8185
aI14331
aI7850
atRp14
ag2
((lp15
I6145
aI6148
aI2053
aI2054
aI16385
aI2056
aI14345
aI4106
aI4439
aI9684
aI14
aI8207
aI16400
aI6820
aI16404
aI8156
aI6166
aI2071
aI14360
aI5807
aI16389
aI14000
aI2084
aI6184
aI14381
aI4142
aI2096
aI49
aI8242
aI8249
aI2107
aI14346
aI8255
aI8256
aI67
aI9686
aI8265
aI6220
aI4174
aI14416
aI81
aI16469
aI86
aI16471
aI12376
aI2139
aI12380
aI14429
aI2147
aI4196
aI14438
aI14441
aI110
aI4210
aI6262
aI16505
aI10364
aI4221
aI16510
aI8323
aI10373
aI136
aI137
aI6167
aI14477
aI14479
aI2197
aI6296
aI16537
aI6298
aI6300
aI2208
aI12449
aI4258
aI10404
aI2215
aI8361
aI16559
aI4276
aI2232
aI6330
aI7883
aI198
aI2247
aI6345
aI4300
aI14542
aI14544
aI14545
aI10450
aI14547
aI2261
aI8407
aI14553
aI16602
aI8911
aI6366
aI2271
aI3792
aI14566
aI15996
aI6379
aI6381
aI4336
aI2290
aI4340
aI6391
aI6392
aI2298
aI2299
aI4351
aI8452
aI8456
aI14605
aI2320
aI6417
aI16376
aI278
aI6424
aI8473
aI4378
aI2331
aI2333
aI16280
aI4389
aI8486
aI16433
aI14633
aI16588
aI8491
aI301
aI14638
aI6450
aI10550
aI2359
aI8505
aI14656
aI4419
aI6468
aI6474
aI16105
aI8524
aI6477
aI4435
aI12629
aI12631
aI14681
aI14686
aI4448
aI9616
aI354
aI14691
aI2406
aI10600
aI5180
aI2411
aI6509
aI14711
aI15619
aI4476
aI6527
aI14726
aI8583
aI14728
aI6539
aI16109
aI8259
aI8597
aI5128
aI14744
aI6565
aI6567
aI2477
aI8623
aI438
aI439
aI2488
aI443
aI6594
aI2501
aI5266
aI6599
aI6600
aI4558
aI14803
aI7709
aI6613
aI14809
aI478
aI4576
aI2534
aI4177
aI2536
aI8682
aI15783
aI4589
aI2542
aI4381
aI14226
aI9641
aI14079
aI8705
aI14851
aI14422
aI8710
aI14855
aI15788
aI4618
aI8717
aI8719
aI88
aI8725
aI14870
aI14872
aI14873
aI538
aI8731
aI8965
aI6689
aI2594
aI6691
aI14884
aI550
aI2599
aI6697
aI4189
aI4661
aI6711
aI6712
aI2617
aI14908
aI8970
aI8769
aI12868
aI8630
aI589
aI13861
aI8784
aI4689
aI597
aI14935
aI600
aI6746
aI8795
aI2654
aI8799
aI2659
aI14948
aI2661
aI16145
aI620
aI8816
aI628
aI633
aI4730
aI4733
aI7957
aI6784
aI15126
aI2702
aI2703
aI8849
aI10899
aI16639
aI665
aI6815
aI4769
aI676
aI15571
aI2727
aI8873
aI2737
aI690
aI2739
aI8885
aI4793
aI3871
aI10944
aI6852
aI709
aI6854
aI712
aI7628
aI715
aI10957
aI719
aI4819
aI8916
aI8918
aI8920
aI8921
aI8922
aI4829
aI15070
aI4833
aI4835
aI13031
aI748
aI15087
aI13040
aI4850
aI4851
aI758
aI9289
aI15487
aI6912
aI773
aI6918
aI6920
aI2826
aI15121
aI16515
aI789
aI9757
aI2840
aI4892
aI801
aI8142
aI6953
aI812
aI15149
aI4913
aI2867
aI15156
aI825
aI11066
aI3551
aI11070
aI15170
aI840
aI6988
aI3213
aI9371
aI9045
aI4953
aI4955
aI7007
aI2913
aI867
aI8144
aI874
aI15211
aI876
aI877
aI878
aI3901
aI880
aI8680
aI7030
aI15226
aI9085
aI5000
aI7051
aI909
aI913
aI7058
aI4590
aI9110
aI9112
aI9114
aI15855
aI2979
aI5028
aI7079
aI13225
aI2989
aI2991
aI945
aI7090
aI953
aI15290
aI9147
aI5052
aI9151
aI16544
aI5058
aI5059
aI15301
aI968
aI5066
aI972
aI7118
aI7119
aI976
aI3025
aI7122
aI3027
aI5076
aI14158
aI7127
aI7128
aI16536
aI995
aI7142
aI3049
aI5100
aI13294
aI3055
aI5288
aI11252
aI3061
aI15188
aI5116
aI14895
aI15358
aI1027
aI9221
aI9222
aI1032
aI8023
aI5134
aI7186
aI15380
aI7190
aI15193
aI8026
aI9249
aI15398
aI5159
aI3115
aI5164
aI15410
aI7221
aI5641
aI3132
aI5183
aI1088
aI1091
aI13382
aI865
aI7241
aI7245
aI6663
aI7011
aI5210
aI1116
aI9309
aI16229
aI9312
aI7265
aI7268
aI15368
aI3174
aI3176
aI15465
aI8039
aI13420
aI15469
aI9332
aI1144
aI1146
aI15483
aI9343
aI13440
aI11393
aI1156
aI3205
aI15495
aI9353
aI15500
aI9357
aI9752
aI7314
aI3219
aI9070
aI15513
aI9071
aI3230
aI7328
aI5282
aI9382
aI1192
aI5291
aI5293
aI3246
aI3247
aI7346
aI7710
aI16407
aI14196
aI9406
aI1220
aI3269
aI7366
aI3273
aI5322
aI3275
aI9420
aI9422
aI7375
aI3283
aI1237
aI3287
aI6964
aI1243
aI15580
aI9437
aI1246
aI7391
aI15586
aI5349
aI9452
aI15598
aI5359
aI13553
aI1267
aI5364
aI9461
aI11510
aI3320
aI9770
aI3326
aI1279
aI15617
aI1282
aI3331
aI7432
aI15575
aI1475
aI13584
aI9489
aI7444
aI13590
aI1304
aI7451
aI3356
aI5406
aI1315
aI9509
aI3366
aI1319
aI13608
aI11562
aI1327
aI15665
aI13621
aI1334
aI1335
aI5434
aI3387
aI9532
aI8757
aI3392
aI15681
aI1346
aI9547
aI3409
aI15699
aI9556
aI15935
aI16271
aI13662
aI3429
aI3433
aI7530
aI5484
aI8082
aI5488
aI1393
aI14227
aI15254
aI3449
aI7743
aI7548
aI1406
aI9109
aI15744
aI3460
aI3461
aI5512
aI13705
aI1422
aI1424
aI15761
aI15763
aI13717
aI9625
aI3482
aI9629
aI9630
aI13727
aI1441
aI5540
aI7589
aI7591
aI3496
aI7593
aI9643
aI1452
aI13741
aI3504
aI3513
aI3514
aI9802
aI7614
aI3520
aI7414
aI3523
aI9668
aI5573
aI3526
aI7623
aI7624
aI1481
aI9674
aI3531
aI5580
aI1488
aI9681
aI9682
aI5588
aI1494
aI15833
aI9690
aI1499
aI1503
aI10491
aI3560
aI15849
aI5610
aI3566
aI3567
aI3571
aI7669
aI3574
aI13816
aI9471
aI9730
aI5637
aI1542
aI12204
aI9738
aI3595
aI9474
aI5037
aI5648
aI5649
aI1555
aI9748
aI13845
aI7703
aI1560
aI1565
aI5662
aI15903
aI9761
aI9762
aI7715
aI7716
aI1573
aI1007
aI3625
aI3626
aI13867
aI9775
aI1288
aI9780
aI9781
aI1592
aI3643
aI9790
aI7009
aI15937
aI9794
aI9796
aI15941
aI7750
aI7752
aI9669
aI1611
aI3664
aI9812
aI5717
aI9145
aI7769
aI9820
aI5725
aI9823
aI7777
aI3682
aI9827
aI9830
aI3687
aI9832
aI9835
aI13932
aI5744
aI3699
aI9844
aI7797
aI1654
aI7801
aI9852
aI1662
aI1663
aI16002
aI16014
aI7448
aI13970
aI7107
aI7829
aI1691
aI13980
aI16029
aI3742
aI3746
aI9500
aI16042
aI7853
aI5806
aI12573
aI1712
aI1713
aI16052
aI13598
aI1721
aI5818
aI16060
aI5821
aI14014
aI14024
aI9164
aI3787
aI1743
aI16080
aI14034
aI4046
aI1750
aI14042
aI16399
aI3024
aI7909
aI1769
aI14058
aI15655
aI6098
aI16112
aI3825
aI16115
aI14068
aI3829
aI3831
aI1784
aI14073
aI9514
aI3839
aI3844
aI14090
aI1809
aI1810
aI1811
aI3861
aI7958
aI14103
aI16153
aI1819
aI1823
aI5925
aI13617
aI1833
aI16171
aI1839
aI5936
aI1844
aI16181
aI1846
aI1847
aI3897
aI3898
aI5947
aI3900
aI7997
aI16190
aI1863
aI5960
aI5962
aI5963
aI1870
aI1871
aI8016
aI3922
aI5518
aI3927
aI8025
aI3930
aI8028
aI13626
aI5094
aI1895
aI8041
aI16018
aI1908
aI6007
aI16248
aI16250
aI8059
aI16262
aI14219
aI6028
aI6030
aI1935
aI6034
aI6035
aI16278
aI8857
aI1944
aI14660
aI12187
aI8094
aI5787
aI9817
aI1960
aI14249
aI1964
aI8109
aI14258
aI14259
aI8931
aI9204
aI14267
aI4028
aI8127
aI8132
aI4039
aI4040
aI8138
aI14285
aI10190
aI4048
aI8145
aI14290
aI2004
aI8149
aI2009
aI14298
aI2012
aI16351
aI16353
aI14309
aI10215
aI7164
aI6122
aI4076
aI14318
aI9397
aI2033
aI6130
aI2040
aI8865
aI2043
aI14334
aI2389
atRp16
ag2
((lp17
I8197
aI11265
aI8204
aI14349
aI10254
aI14351
aI14353
aI4114
aI8212
aI10261
aI2083
aI10283
aI4140
aI4143
aI6200
aI10303
aI3480
aI11275
aI12356
aI4166
aI13665
aI14409
aI15551
aI10641
aI10936
aI8281
aI8283
aI16476
aI2141
aI8287
aI96
aI11280
aI8290
aI15035
aI13670
aI10343
aI2153
aI108
aI8210
aI2159
aI15484
aI16062
aI8315
aI10365
aI10369
aI2181
aI10375
aI14472
aI10604
aI15553
aI6289
aI148
aI8342
aI10399
aI6304
aI7195
aI14190
aI6312
aI10409
aI10410
aI2219
aI10416
aI10952
aI15282
aI2242
aI10436
aI10438
aI8394
aI16587
aI4305
aI14546
aI4311
aI14552
aI10618
aI10032
aI224
aI6372
aI11395
aI239
aI14579
aI8438
aI14583
aI10783
aI16633
aI4348
aI10495
aI2307
aI2309
aI10502
aI2313
aI269
aI8464
aI2321
aI10515
aI2325
aI11125
aI14616
aI4377
aI14618
aI2095
aI8476
aI8477
aI4382
aI14628
aI4390
aI11313
aI10537
aI300
aI10544
aI11315
aI4404
aI4412
aI15413
aI6465
aI8521
aI11319
aI10572
aI10578
aI6483
aI10580
aI11418
aI14684
aI10991
aI11332
aI10599
aI364
aI6513
aI10610
aI2421
aI4474
aI10619
aI10620
aI13718
aI6536
aI12681
aI6538
aI8587
aI10636
aI4493
aI4497
aI10645
aI14742
aI8601
aI6553
aI4506
aI8943
aI4511
aI4512
aI10657
aI2467
aI4521
aI14407
aI14767
aI10675
aI8631
aI2491
aI6590
aI14783
aI10688
aI10691
aI4550
aI13730
aI8656
aI11404
aI8660
aI8663
aI472
aI10715
aI2526
aI2528
aI10722
aI10724
aI8678
aI10728
aI14827
aI2540
aI11346
aI6638
aI496
aI497
aI2547
aI10743
aI508
aI10752
aI4609
aI10754
aI10755
aI14852
aI6661
aI14854
aI8714
aI10763
aI11406
aI9645
aI6673
aI10773
aI12824
aI14877
aI14878
aI543
aI6688
aI10787
aI4644
aI8741
aI10797
aI10808
aI1461
aI10816
aI6721
aI10820
aI10822
aI11408
aI10827
aI2639
aI6738
aI4691
aI8791
aI10840
aI14939
aI10845
aI12897
aI6754
aI10851
aI4709
aI4881
aI6760
aI6761
aI10860
aI624
aI10868
aI2679
aI6778
aI10875
aI10876
aI10877
aI10879
aI2692
aI14981
aI8838
aI8300
aI10894
aI8851
aI8853
aI2710
aI6807
aI10906
aI10909
aI11138
aI10913
aI8866
aI8876
aI10931
aI10935
aI12984
aI10937
aI10938
aI4795
aI11381
aI8896
aI10950
aI4808
aI10954
aI11383
aI11042
aI11276
aI10961
aI10971
aI4832
aI2512
aI10979
aI5244
aI2799
aI10996
aI10997
aI11000
aI2516
aI11003
aI11008
aI11015
aI15113
aI11018
aI780
aI11021
aI11022
aI785
aI6930
aI11027
aI11029
aI11031
aI11032
aI4890
aI15131
aI9008
aI8994
aI11043
aI11044
aI11398
aI2860
aI6959
aI4912
aI11057
aI4915
aI11060
aI11401
aI11064
aI11065
aI11067
aI11069
aI11073
aI2886
aI15176
aI3212
aI11083
aI846
aI11087
aI11089
aI6995
aI11092
aI11093
aI11094
aI855
aI11417
aI11097
aI11099
aI11101
aI11102
aI11104
aI11105
aI11106
aI11108
aI8826
aI11110
aI9361
aI11112
aI9065
aI11114
aI11116
aI11120
aI11121
aI11123
aI11124
aI2933
aI11126
aI11128
aI2938
aI11131
aI11132
aI11133
aI11134
aI11135
aI11136
aI2945
aI7042
aI11139
aI11140
aI9093
aI2952
aI905
aI11146
aI11148
aI11151
aI7056
aI11153
aI11158
aI9369
aI7064
aI11162
aI9116
aI9117
aI11166
aI11167
aI9712
aI11171
aI11173
aI938
aI11179
aI11180
aI11181
aI11182
aI9135
aI8008
aI11186
aI10739
aI11188
aI11190
aI15288
aI11193
aI11195
aI11197
aI11198
aI960
aI11201
aI11202
aI11203
aI7108
aI5061
aI11206
aI11209
aI15307
aI5070
aI11215
aI977
aI9540
aI980
aI11222
aI15320
aI5081
aI11226
aI11227
aI11232
aI11233
aI3042
aI11236
aI15718
aI11238
aI7143
aI5096
aI11241
aI11242
aI11243
aI9196
aI11245
aI1006
aI11250
aI3059
aI7156
aI1013
aI11254
aI9211
aI9213
aI5118
aI9215
aI9217
aI11266
aI11267
aI6657
aI11272
aI11273
aI11095
aI1036
aI11278
aI7184
aI11282
aI11283
aI11409
aI11286
aI11287
aI11290
aI1051
aI1052
aI11293
aI1057
aI11298
aI5155
aI11300
aI11302
aI11305
aI11306
aI11308
aI11309
aI11310
aI11311
aI9264
aI11141
aI1075
aI11316
aI11317
aI11318
aI5175
aI5176
aI11322
aI11324
aI11326
aI11327
aI11328
aI11331
aI9284
aI11334
aI9287
aI1548
aI11339
aI11341
aI11342
aI11343
aI11344
aI3154
aI11347
aI11348
aI11349
aI11352
aI1113
aI5212
aI11357
aI11358
aI11109
aI5216
aI1122
aI11364
aI7270
aI11368
aI11369
aI12135
aI11372
aI9325
aI11376
aI11378
aI1141
aI11382
aI11113
aI11385
aI11387
aI1148
aI11389
aI11390
aI11392
aI11394
aI3203
aI11397
aI9350
aI11399
aI11400
aI3209
aI11403
aI1164
aI11405
aI5262
aI11407
aI7312
aI536
aI11410
aI11411
aI11412
aI3950
aI11414
aI11415
aI11416
aI3225
aI3226
aI7323
aI11420
aI11421
aI11422
aI7327
aI9379
aI11428
aI11429
aI11430
aI11432
aI11434
aI11435
aI13485
aI11438
aI8733
aI11440
aI7345
aI11442
aI11445
aI11447
aI11448
aI11449
aI11450
aI5307
aI9407
aI7361
aI7365
aI9416
aI1227
aI1229
aI15566
aI1232
aI3281
aI1235
aI6692
aI890
aI11498
aI13550
aI9460
aI14999
aI1273
aI9466
aI7419
aI8635
aI3328
aI7427
aI15621
aI9089
aI15624
aI5386
aI5389
aI1308
aI9503
aI3363
aI1316
aI15921
aI15240
aI15667
aI11145
aI7483
aI15678
aI9539
aI5444
aI9552
aI14971
aI9569
aI5475
aI9574
aI9583
aI15728
aI13688
aI9593
aI10815
aI9601
aI9604
aI13702
aI9607
aI3466
aI15756
aI3478
aI5528
aI3481
aI3484
aI13726
aI15775
aI15778
aI9637
aI9639
aI11164
aI5549
aI15790
aI15795
aI5557
aI15807
aI1472
aI7619
aI9672
aI13771
aI13785
aI10831
aI5597
aI7648
aI11439
aI5615
aI7664
aI15860
aI13813
aI7674
aI3581
aI15871
aI7692
aI1561
aI11183
aI261
aI9760
aI3618
aI15260
aI15915
aI9773
aI1584
aI1585
aI5682
aI16307
aI1630
aI1594
aI3646
aI1600
aI3649
aI13891
aI10849
aI8461
aI1619
aI5718
aI15961
aI13917
aI5726
aI7775
aI13926
aI7784
aI9837
aI15982
aI5747
aI13948
aI11200
aI16004
aI16006
aI15297
aI9870
aI9872
aI3731
aI9876
aI10521
aI5060
aI7835
aI13253
aI1707
aI13997
aI13998
aI7856
aI9908
aI286
aI1723
aI7868
aI1725
aI7870
aI16070
aI14030
aI10901
aI7890
aI1751
aI634
aI9955
aI14056
aI7913
aI15130
aI11218
aI3833
aI7930
aI14078
aI14082
aI3845
aI1807
aI14097
aI14100
aI11225
aI10011
aI1822
aI16159
aI4742
aI10022
aI3880
aI14121
aI13700
aI3885
aI3888
aI10034
aI7475
aI8841
aI7995
aI5949
aI3910
aI1864
aI11246
aI16202
aI8015
aI10064
aI10070
aI1888
aI10082
aI5987
aI3943
aI11239
aI14188
aI14189
aI5998
aI11240
aI11111
aI3956
aI14198
aI10651
aI14202
aI14207
aI16257
aI10561
aI13292
aI10123
aI1932
aI6029
aI15683
aI6037
aI12185
aI6045
aI6048
aI14242
aI10152
aI1961
aI16298
aI8107
aI14252
aI8110
aI10160
aI11251
aI10704
aI11271
aI6071
aI6074
aI16031
aI16321
aI16331
aI8147
aI8150
aI14305
aI11259
aI6117
aI10218
aI4077
aI15207
aI8183
aI14328
aI8186
aI4094
atRp18
ag2
((lp19
I2049
aI14662
aI8193
aI8200
aI15
aI14352
aI10257
aI2066
aI6164
aI10352
aI10269
aI10270
aI4127
aI16418
aI6180
aI16421
aI10279
aI40
aI10281
aI10248
aI9907
aI4148
aI16437
aI4150
aI4155
aI65
aI6214
aI2121
aI6219
aI77
aI10319
aI10320
aI4179
aI10325
aI6230
aI8279
aI16474
aI10331
aI10332
aI8286
aI2143
aI97
aI99
aI4198
aI106
aI10347
aI4204
aI16494
aI112
aI8306
aI10356
aI10357
aI122
aI123
aI4222
aI15723
aI16518
aI14471
aI10378
aI10379
aI14221
aI10605
aI10384
aI147
aI6295
aI14492
aI158
aI159
aI160
aI8353
aI10407
aI16553
aI10951
aI6316
aI8365
aI16558
aI178
aI13683
aI14517
aI10914
aI14522
aI10099
aI16572
aI10429
aI192
aI16577
aI10434
aI195
aI2244
aI197
aI2246
aI9932
aI6348
aI14541
aI10449
aI10454
aI14713
aI10456
aI3108
aI10462
aI223
aI10494
aI229
aI230
aI8423
aI6376
aI8429
aI10479
aI12528
aI15059
aI2293
aI247
aI10488
aI14585
aI2301
aI2302
aI10496
aI6401
aI16643
aI10966
aI14598
aI264
aI10505
aI10506
aI10512
aI6420
aI6421
aI2326
aI10969
aI280
aI2335
aI2336
aI10531
aI16648
aI7559
aI2349
aI6447
aI8496
aI14641
aI10553
aI8506
aI14652
aI10563
aI2374
aI10567
aI4425
aI10570
aI14674
aI8531
aI2390
aI347
aI15418
aI9957
aI8556
aI7570
aI14705
aI10612
aI10613
aI10614
aI10615
aI10617
aI8570
aI10623
aI384
aI10625
aI10626
aI14059
aI8257
aI10643
aI10990
aI2673
aI2456
aI10650
aI4507
aI6558
aI10655
aI6560
aI10659
aI4517
aI4518
aI10669
aI8622
aI10671
aI2481
aI8629
aI4535
aI10680
aI10682
aI10685
aI10686
aI10687
aI416
aI4548
aI10694
aI10696
aI16382
aI10700
aI14797
aI10703
aI10707
aI10708
aI10709
aI10313
aI11001
aI14808
aI10714
aI16519
aI10717
aI8672
aI8673
aI2531
aI10662
aI6630
aI10730
aI4861
aI2548
aI4597
aI6646
aI10744
aI8697
aI4602
aI14843
aI10748
aI14846
aI10751
aI10756
aI9985
aI10760
aI10762
aI10764
aI10765
aI10767
aI10768
aI10770
aI10771
aI10774
aI10775
aI10777
aI10778
aI10780
aI4639
aI6690
aI10788
aI8742
aI10791
aI10792
aI13711
aI557
aI6702
aI8755
aI10805
aI11017
aI6714
aI571
aI14773
aI8768
aI10817
aI2626
aI8771
aI9996
aI10826
aI8780
aI10834
aI10837
aI6744
aI10841
aI608
aI8804
aI6757
aI10854
aI615
aI10856
aI10857
aI10858
aI10859
aI10862
aI10864
aI625
aI2675
aI4724
aI10869
aI10870
aI631
aI10872
aI4884
aI10881
aI10883
aI449
aI10888
aI10889
aI10891
aI8844
aI654
aI8848
aI10898
aI14995
aI10900
aI663
aI6596
aI6810
aI9327
aI6812
aI4766
aI8863
aI4768
aI673
aI2722
aI677
aI10918
aI680
aI11036
aI10922
aI10923
aI15020
aI10925
aI7965
aI11038
aI15034
aI701
aI703
aI8897
aI6850
aI10948
aI2758
aI8903
aI4813
aI10958
aI10960
aI721
aI4818
aI10867
aI10964
aI7630
aI2774
aI8919
aI4825
aI6875
aI10974
aI10975
aI10976
aI10977
aI10978
aI10980
aI741
aI10982
aI10983
aI10986
aI10987
aI10988
aI2797
aI8942
aI6895
aI10992
aI11048
aI10994
aI10995
aI8950
aI8953
aI2813
aI11007
aI2816
aI11011
aI11012
aI11013
aI11014
aI11016
aI4873
aI11020
aI6926
aI11053
aI11026
aI8979
aI788
aI8982
aI6937
aI11035
aI2844
aI8990
aI11039
aI11045
aI11046
aI8999
aI4904
aI11049
aI11050
aI9003
aI11052
aI2861
aI11054
aI11055
aI11056
aI11059
aI11063
aI6968
aI6971
aI11068
aI11071
aI11072
aI10720
aI3894
aI4934
aI10721
aI11080
aI11081
aI6987
aI11084
aI6990
aI2895
aI11088
aI9042
aI10723
aI10735
aI16527
aI9052
aI7357
aI864
aI16123
aI15164
aI15210
aI2923
aI11119
aI4976
aI2934
aI9081
aI2939
aI7036
aI903
aI16535
aI5013
aI16196
aI5019
aI2974
aI2980
aI5031
aI4191
aI11079
aI7085
aI5040
aI7095
aI952
aI6303
aI956
aI10741
aI15299
aI5062
aI7112
aI5067
aI15308
aI974
aI15623
aI9169
aI3030
aI10745
aI986
aI15326
aI991
aI14503
aI11090
aI3057
aI11091
aI13305
aI3069
aI5119
aI14508
aI10072
aI5141
aI5142
aI3588
aI3100
aI1060
aI3111
aI15404
aI14514
aI1070
aI5173
aI3126
aI7223
aI1082
aI15427
aI9285
aI15431
aI9288
aI13984
aI5196
aI15437
aI1103
aI9299
aI5208
aI10084
aI3162
aI1115
aI1123
aI13841
aI4285
aI15474
aI15891
aI7300
aI1157
aI9351
aI1163
aI9356
aI5263
aI1169
aI10435
aI5273
aI15516
aI15518
aI5279
aI1203
aI9398
aI3256
aI11453
aI1215
aI15557
aI1225
aI9418
aI16247
aI9423
aI15568
aI9425
aI7384
aI3295
aI15228
aI15594
aI7719
aI3309
aI5362
aI10135
aI5365
aI9465
aI9468
aI13567
aI5380
aI5382
aI5383
aI11530
aI9483
aI3340
aI7437
aI1294
aI5391
aI1297
aI10818
aI10798
aI1306
aI3361
aI11563
aI7468
aI5422
aI13615
aI10819
aI10981
aI15671
aI15673
aI15674
aI5436
aI9533
aI5438
aI1344
aI16267
aI5454
aI13647
aI5457
aI5461
aI5463
aI10128
aI10811
aI15722
aI11627
aI15724
aI1395
aI7541
aI8980
aI13687
aI3448
aI5499
aI7549
aI3456
aI1415
aI15754
aI8087
aI5516
aI8770
aI13549
aI10136
aI3474
aI1427
aI5529
aI7579
aI5534
aI5536
aI13729
aI7067
aI11684
aI1447
aI7597
aI7604
aI11028
aI3511
aI11705
aI5565
aI7620
aI1478
aI10828
aI13772
aI1486
aI13778
aI9693
aI10211
aI15842
aI10962
aI9702
aI1525
aI11766
aI4770
aI1533
aI9726
aI15875
aI7684
aI3589
aI14863
aI3601
aI9747
aI5654
aI3607
aI7706
aI1564
aI9763
aI15908
aI7430
aI5671
aI8304
aI5674
aI3335
aI15918
aI9776
aI13873
aI9778
aI15923
aI9787
aI13578
aI13965
aI10848
aI1602
aI7747
aI15945
aI9803
aI13900
aI3661
aI3662
aI13983
aI7096
aI15955
aI1620
aI9814
aI5720
aI14608
aI15291
aI9833
aI9839
aI3696
aI9841
aI5748
aI10174
aI16001
aI9860
aI5765
aI9862
aI7818
aI9869
aI11918
aI5778
aI7827
aI5781
aI13974
aI7831
aI15983
aI9887
aI5792
aI9840
aI3747
aI9158
aI5798
aI6769
aI9899
aI16044
aI13999
aI15304
aI1714
aI5811
aI5816
aI3700
aI7866
aI9916
aI9917
aI1726
aI16065
aI7874
aI5830
aI9928
aI9930
aI9931
aI7884
aI9933
aI8446
aI9938
aI9940
aI5846
aI9945
aI3802
aI14047
aI16099
aI5861
aI14054
aI14057
aI9963
aI14067
aI7925
aI5883
aI7932
aI7935
aI5889
aI14083
aI14085
aI3852
aI3856
aI3857
aI5912
aI3867
aI5917
aI5921
aI7970
aI14450
aI16638
aI7975
aI10887
aI10029
aI3887
aI14128
aI10038
aI12088
aI16185
aI10044
aI10052
aI10905
aI10057
aI3915
aI10060
aI5967
aI8019
aI14166
aI9678
aI8035
aI8036
aI1893
aI14186
aI5995
aI8044
aI16238
aI1905
aI1906
aI3955
aI1909
aI10103
aI14201
aI1918
aI7488
aI3971
aI14216
aI4759
aI10125
aI16270
aI10127
aI3984
aI8083
aI3989
aI10134
aI6039
aI8088
aI14233
aI6044
aI8095
aI4000
aI10146
aI16291
aI8100
aI8101
aI1962
aI16303
aI8862
aI16312
aI1977
aI8122
aI10911
aI1982
aI10912
aI16374
aI6086
aI9889
aI13910
aI6818
aI12241
aI16035
aI4055
aI13774
aI4060
aI9893
aI8163
aI14310
aI16360
aI14316
aI10222
aI11047
aI10226
aI10228
aI16373
aI10230
aI4090
aI16162
aI14332
aI14333
aI2046
aI9557
atRp20
ag2
((lp21
I11264
aI12291
aI12293
aI10247
aI10249
aI16394
aI10252
aI12301
aI6163
aI10260
aI10264
aI6169
aI12319
aI12635
aI12324
aI8229
aI12329
aI4138
aI12295
aI45
aI8239
aI12338
aI12979
aI12340
aI12342
aI8248
aI58
aI10591
aI62
aI12352
aI10305
aI4162
aI6211
aI6212
aI6215
aI12364
aI10594
aI16465
aI12370
aI10329
aI16475
aI10333
aI10335
aI12384
aI4195
aI100
aI12393
aI12394
aI3431
aI14447
aI12401
aI115
aI10359
aI12408
aI6265
aI16514
aI8327
aI12426
aI4236
aI4237
aI10387
aI4244
aI12654
aI12443
aI12444
aI2209
aI11975
aI16556
aI173
aI12463
aI11976
aI8370
aI4277
aI12470
aI4279
aI8376
aI12473
aI8378
aI12475
aI4284
aI12478
aI12484
aI4293
aI12486
aI199
aI2248
aI10441
aI205
aI2255
aI10451
aI2260
aI12501
aI4310
aI12505
aI8411
aI12508
aI2085
aI12512
aI10466
aI14565
aI12521
aI7207
aI10477
aI12526
aI6384
aI10484
aI245
aI16631
aI12536
aI12537
aI4350
aI2303
aI12547
aI10285
aI11992
aI4370
aI12564
aI10518
aI12567
aI4376
aI6425
aI14619
aI2332
aI6429
aI12579
aI292
aI2341
aI10535
aI12589
aI8495
aI7817
aI8499
aI12598
aI8503
aI12601
aI316
aI4420
aI10566
aI9953
aI329
aI12619
aI12620
aI9695
aI12634
aI10587
aI12636
aI2397
aI12638
aI12639
aI12641
aI6498
aI6499
aI10596
aI12647
aI12648
aI6506
aI12652
aI8558
aI10608
aI2420
aI12350
aI12662
aI12663
aI12664
aI12665
aI2431
aI8576
aI12673
aI12674
aI12694
aI10630
aI8584
aI12683
aI10306
aI12687
aI11672
aI16451
aI11743
aI10648
aI14404
aI12015
aI12155
aI10667
aI12716
aI4526
aI12719
aI12720
aI14769
aI14275
aI12726
aI12729
aI4538
aI1439
aI2492
aI12733
aI12738
aI14787
aI12740
aI8648
aI8649
aI6605
aI12750
aI6607
aI8658
aI468
aI12758
aI10713
aI474
aI14812
aI477
aI10727
aI10731
aI15688
aI10750
aI5547
aI11009
aI8713
aI15106
aI12429
aI4628
aI16473
aI3973
aI10779
aI540
aI10782
aI12037
aI14881
aI14882
aI547
aI8740
aI11475
aI12381
aI2609
aI12862
aI581
aI584
aI6729
aI2635
aI6737
aI595
aI8793
aI2651
aI12730
aI14614
aI12900
aI10853
aI2662
aI12905
aI8815
aI10866
aI2676
aI2677
aI10874
aI8830
aI8832
aI8834
aI653
aI2704
aI2717
aI10910
aI15011
aI10920
aI10924
aI10926
aI14792
aI2738
aI691
aI14685
aI6839
aI2750
aI8895
aI2754
aI8902
aI4388
aI8913
aI12572
aI10972
aI6880
aI15077
aI8941
aI6898
aI6899
aI8948
aI2805
aI11002
aI9344
aI11010
aI4871
aI11824
aI12762
aI4899
aI804
aI6949
aI6950
aI810
aI16072
aI13105
aI9015
aI13115
aI4927
aI9025
aI11074
aI11075
aI15174
aI839
aI12195
aI12428
aI844
aI847
aI9046
aI11096
aI11748
aI9054
aI4961
aI11107
aI15205
aI9062
aI7018
aI15214
aI15215
aI11122
aI12435
aI4982
aI2935
aI888
aI16533
aI15851
aI7045
aI11143
aI15246
aI916
aI11157
aI11159
aI11163
aI11169
aI7075
aI2982
aI2983
aI9134
aI7088
aI5041
aI5042
aI2997
aI955
aI12307
aI7105
aI9168
aI15313
aI9170
aI15318
aI5079
aI9039
aI3036
aI11231
aI9187
aI997
aI3050
aI11247
aI1534
aI11255
aI11258
aI15357
aI11262
aI11263
aI9216
aI6998
aI3078
aI11274
aI15373
aI9237
aI1046
aI15385
aI3104
aI12123
aI1063
aI5160
aI13358
aI9265
aI5355
aI11320
aI14175
aI1087
aI11446
aI15433
aI11340
aI9293
aI1111
aI11791
aI7261
aI14864
aI15458
aI3173
aI1128
aI11374
aI7284
aI11384
aI11386
aI3200
aI11798
aI1160
aI9359
aI15505
aI5267
aI7316
aI11413
aI7319
aI9370
aI11423
aI5287
aI12487
aI1200
aI15219
aI7348
aI7350
aI7353
aI11451
aI3260
aI3274
aI11458
aI9412
aI11461
aI9414
aI11809
aI11465
aI1226
aI11469
aI11472
aI11473
aI9427
aI1236
aI5338
aI11485
aI9440
aI3297
aI11491
aI1255
aI11499
aI9454
aI14704
aI7411
aI1270
aI13561
aI7420
aI11517
aI11520
aI11523
aI1284
aI11526
aI1287
aI5384
aI3339
aI11534
aI7439
aI5392
aI7441
aI5394
aI11539
aI3350
aI11547
aI11482
aI15647
aI5680
aI13603
aI5412
aI11559
aI12660
aI13610
aI9518
aI16264
aI13956
aI11581
aI9535
aI11585
aI7491
aI5445
aI1350
aI1351
aI13640
aI11593
aI5451
aI11843
aI11604
aI11150
aI11606
aI1368
aI11611
aI7518
aI11616
aI11617
aI9571
aI13668
aI1383
aI1384
aI3434
aI7399
aI11628
aI5490
aI16275
aI11639
aI11641
aI3450
aI11643
aI9598
aI11648
aI5507
aI11466
aI7558
aI11655
aI11656
aI7561
aI11660
aI3473
aI11666
aI11667
aI11669
aI10137
aI7576
aI9626
aI7582
aI8773
aI15776
aI2288
aI11682
aI15259
aI11685
aI11686
aI15784
aI3499
aI3503
aI11696
aI3507
aI11849
aI9656
aI13754
aI7823
aI11710
aI11712
aI14240
aI3522
aI11851
aI13764
aI11720
aI15818
aI11723
aI11725
aI11853
aI4003
aI11734
aI11735
aI11736
aI11737
aI13789
aI9694
aI4005
aI13792
aI7649
aI7652
aI11751
aI11755
aI9708
aI11758
aI9711
aI11760
aI15859
aI6398
aI11769
aI11772
aI7678
aI11776
aI11780
aI9734
aI11788
aI9743
aI11793
aI7699
aI14031
aI1558
aI11800
aI11801
aI11805
aI11184
aI5667
aI13860
aI11813
aI7718
aI11821
aI11822
aI5679
aI3632
aI11825
aI11827
aI15925
aI15926
aI15806
aI16308
aI11919
aI11839
aI11841
aI11531
aI9801
aI15946
aI7755
aI9805
aI15950
aI11860
aI11861
aI11863
aI3673
aI11868
aI11869
aI11536
aI11885
aI3695
aI11888
aI11891
aI9847
aI11896
aI11898
aI3710
aI7808
aI11906
aI7811
aI3716
aI7446
aI11911
aI5769
aI11914
aI3725
aI7822
aI5775
aI11923
aI5782
aI12569
aI11930
aI9884
aI7837
aI7838
aI14923
aI7843
aI11942
aI9896
aI284
aI7851
aI11953
aI16051
aI11957
aI11958
aI9912
aI14010
aI5819
aI11969
aI16066
aI9923
aI11973
aI11974
aI11553
aI1736
aI11977
aI16074
aI11983
aI16081
aI11986
aI11988
aI14038
aI5848
aI7897
aI16091
aI5857
aI12003
aI1764
aI12005
aI12008
aI12012
aI12014
aI1775
aI16113
aI12019
aI16133
aI3832
aI12025
aI9984
aI12033
aI12034
aI9989
aI12038
aI1799
aI16154
aI14092
aI12047
aI12048
aI12049
aI12050
aI11907
aI5908
aI12054
aI16152
aI10009
aI12058
aI12059
aI12251
aI12071
aI10028
aI10033
aI12084
aI12085
aI3895
aI12094
aI3906
aI16199
aI12106
aI10551
aI11917
aI14160
aI12542
aI14164
aI12117
aI12118
aI12120
aI10075
aI12124
aI10079
aI5986
aI12132
aI12134
aI3945
aI14193
aI12147
aI12150
aI8055
aI12152
aI1343
aI3964
aI12267
aI12164
aI8069
aI12168
aI14217
aI12171
aI12173
aI1939
aI8084
aI12182
aI14231
aI12184
aI1945
aI12191
aI8096
aI14243
aI12196
aI1957
aI12198
aI12200
aI12203
aI12206
aI12209
aI16306
aI12211
aI10164
aI12215
aI12219
aI10173
aI6078
aI12226
aI1355
aI15507
aI10184
aI1994
aI16332
aI12238
aI12240
aI12243
aI10196
aI8153
aI12001
aI12255
aI4065
aI12259
aI12354
aI4075
aI16364
aI10237
aI12277
aI4087
aI4093
aI10238
atRp22
ag2
((lp23
I16386
aI4779
aI6150
aI6151
aI6828
aI14348
aI16
aI15363
aI20
aI14117
aI2070
aI14359
aI24
aI16047
aI2076
aI14366
aI6178
aI14372
aI16423
aI8233
aI16426
aI16431
aI2097
aI14387
aI14390
aI6203
aI4156
aI14397
aI6209
aI2114
aI6213
aI3753
aI74
aI75
aI4172
aI16463
aI3427
aI2745
aI6233
aI2144
aI101
aI6246
aI6248
aI14442
aI109
aI2158
aI2162
aI10355
aI2167
aI16504
aI121
aI12412
aI12414
aI16511
aI12416
aI132
aI6278
aI14473
aI2186
aI2187
aI14476
aI14462
aI2190
aI2072
aI4242
aI16532
aI2201
aI2202
aI16542
aI16543
aI14496
aI4257
aI6552
aI2211
aI14500
aI16549
aI4263
aI28
aI14506
aI6315
aI8364
aI7066
aI14512
aI14513
aI6322
aI6323
aI15759
aI16565
aI2233
aI2237
aI16574
aI191
aI4289
aI196
aI14534
aI14537
aI2251
aI4303
aI14737
aI2257
aI16594
aI10452
aI216
aI2265
aI219
aI14557
aI4318
aI4319
aI6368
aI4323
aI4329
aI2285
aI6383
aI240
aI14577
aI4338
aI12531
aI244
aI2294
aI3113
aI14584
aI249
aI6394
aI16636
aI42
aI2305
aI6402
aI262
aI10503
aI266
aI6413
aI15762
aI2319
aI6416
aI4373
aI2328
aI282
aI14383
aI4380
aI4826
aI6431
aI290
aI293
aI4145
aI2346
aI16355
aI311
aI2361
aI6458
aI6461
aI6462
aI15832
aI325
aI14664
aI4427
aI2381
aI6482
aI14676
aI6485
aI342
aI10584
aI5519
aI2398
aI4447
aI2400
aI353
aI16443
aI14695
aI361
aI4735
aI4461
aI368
aI2424
aI4473
aI16243
aI14716
aI6890
aI5525
aI14721
aI387
aI390
aI2439
aI4495
aI14736
aI6545
aI6546
aI7235
aI4500
aI6550
aI8600
aI2457
aI410
aI2459
aI6556
aI3235
aI14751
aI14752
aI4513
aI6555
aI6570
aI4509
aI2480
aI434
aI4531
aI14775
aI14784
aI12737
aI12743
aI2505
aI2507
aI460
aI15388
aI6608
aI466
aI4563
aI14805
aI7517
aI4175
aI4572
aI12768
aI2530
aI8676
aI14829
aI6640
aI6641
aI14474
aI506
aI4603
aI6652
aI10749
aI510
aI6655
aI4608
aI6659
aI4614
aI10759
aI2568
aI14857
aI6231
aI14860
aI4624
aI6496
aI2578
aI531
aI14869
aI16521
aI2820
aI542
aI15770
aI774
aI14886
aI8744
aI4656
aI4657
aI6579
aI6710
aI4663
aI2616
aI4666
aI6716
aI4669
aI575
aI4672
aI6722
aI6923
aI2628
aI4678
aI4681
aI588
aI6736
aI3512
aI8786
aI15459
aI599
aI14936
aI4699
aI4701
aI14437
aI2832
aI15803
aI4708
aI2663
aI6764
aI6765
aI4721
aI2674
aI16147
aI8823
aI4729
aI4731
aI14973
aI2686
aI4522
aI2690
aI8835
aI2693
aI6790
aI2700
aI14820
aI2705
aI4755
aI14996
aI13661
aI15001
aI5914
aI672
aI2721
aI2725
aI679
aI15016
aI6826
aI8875
aI2732
aI6258
aI15023
aI6259
aI15032
aI697
aI4794
aI6844
aI4799
aI12993
aI4802
aI6853
aI711
aI4811
aI716
aI10959
aI4817
aI15060
aI15062
aI6874
aI4827
aI3877
aI739
aI2794
aI15143
aI4844
aI5928
aI15091
aI6901
aI4855
aI760
aI15098
aI15100
aI2814
aI15829
aI4224
aI2818
aI772
aI2821
aI8966
aI3543
aI13068
aI784
aI13784
aI2822
aI4883
aI2836
aI2837
aI2842
aI15132
aI2845
aI7187
aI4897
aI4571
aI807
aI15145
aI6955
aI6956
aI813
aI2864
aI15154
aI820
aI6967
aI9021
aI6974
aI4936
aI7308
aI4578
aI4942
aI15183
aI13136
aI6994
aI851
aI4949
aI6916
aI857
aI15195
aI2909
aI862
aI4959
aI2914
aI13156
aI4965
aI4966
aI2193
aI4969
aI4971
aI2877
aI15218
aI15220
aI886
aI11130
aI4394
aI15850
aI896
aI897
aI2946
aI5270
aI908
aI7053
aI5009
aI15251
aI13209
aI5018
aI924
aI929
aI14818
aI5958
aI15270
aI2984
aI7324
aI2986
aI13227
aI2993
aI2995
aI5044
aI950
aI9144
aI5050
aI957
aI15294
aI7104
aI3009
aI3013
aI14497
aI7121
aI1187
aI982
aI13271
aI984
aI7129
aI3034
aI5083
aI5085
aI13279
aI994
aI7139
aI5092
aI3047
aI9192
aI1005
aI3056
aI5108
aI14832
aI15352
aI7167
aI1026
aI14507
aI7172
aI15366
aI15367
aI15532
aI7180
aI9229
aI1038
aI1040
aI3090
aI3091
aI11285
aI3095
aI3099
aI9244
aI5150
aI3103
aI3105
aI7332
aI1065
aI15403
aI7213
aI12125
aI4741
aI15409
aI5177
aI7227
aI15421
aI2503
aI5560
aI3145
aI7242
aI3147
aI15438
aI5203
aI7252
aI3159
aI13839
aI5213
aI15456
aI3171
aI5220
aI1125
aI7275
aI5228
aI16573
aI16647
aI5234
aI6675
aI3189
aI1142
aI7359
aI7293
aI3199
aI5248
aI7019
aI5254
aI15498
aI5260
aI7313
aI1170
aI13633
aI7317
aI15510
aI15512
aI5276
aI1184
aI5281
aI15899
aI1188
aI1191
aI1196
aI3250
aI9395
aI5300
aI3253
aI201
aI7352
aI1210
aI15359
aI9404
aI11454
aI6005
aI1218
aI6347
aI7364
aI15563
aI1231
aI3280
aI3282
aI5331
aI14179
aI7383
aI1241
aI4986
aI4645
aI15585
aI3306
aI15595
aI1260
aI3310
aI15600
aI13864
aI16041
aI1269
aI13559
aI7416
aI3323
aI3324
aI5376
aI5378
aI15620
aI15523
aI13574
aI3337
aI5390
aI3345
aI13586
aI3348
aI4313
aI13592
aI1305
aI5403
aI15237
aI3360
aI7457
aI9506
aI2267
aI15652
aI16547
aI1320
aI6386
aI6023
aI15660
aI13613
aI13614
aI16605
aI16411
aI1330
aI1331
aI14979
aI11573
aI13625
aI15583
aI7489
aI11586
aI1347
aI13639
aI5450
aI13645
aI7507
aI7547
aI1373
aI6115
aI5473
aI1379
aI5477
aI7526
aI5480
aI5483
aI13676
aI7536
aI3443
aI5161
aI11638
aI16617
aI2623
aI7402
aI13695
aI6720
aI9602
aI15748
aI5510
aI7560
aI7404
aI1418
aI15755
aI15758
aI1423
aI1426
aI1429
aI1430
aI15767
aI13722
aI1437
aI3487
aI7586
aI5539
aI1446
aI3495
aI14385
aI2972
aI1450
aI15787
aI3500
aI3501
aI13742
aI6186
aI15798
aI7608
aI15802
aI4345
aI15120
aI15808
aI14582
aI3527
aI13769
aI5581
aI16632
aI13780
aI9685
aI2297
aI1496
aI5595
aI14586
aI13796
aI15845
aI1510
aI15847
aI1512
aI15612
aI3562
aI594
aI15854
aI14589
aI15272
aI5619
aI5620
aI3575
aI5627
aI13820
aI3583
aI5633
aI15874
aI2987
aI3591
aI1551
aI6803
aI9749
aI13848
aI3610
aI1563
aI5660
aI15901
aI3616
aI1570
aI6747
aI15281
aI5672
aI15601
aI5676
aI15920
aI5043
aI3638
aI1593
aI14943
aI6410
aI7094
aI5702
aI3655
aI15944
aI5705
aI1612
aI9807
aI3000
aI1618
aI13908
aI7438
aI15958
aI13916
aI5727
aI3680
aI15330
aI11874
aI6075
aI1638
aI15977
aI3691
aI5740
aI5053
aI5746
aI15988
aI1657
aI13609
aI5760
aI5766
aI13961
aI16011
aI5773
aI16245
aI3730
aI5779
aI1685
aI16022
aI16023
aI5785
aI5788
aI3743
aI1696
aI14241
aI13986
aI16036
aI1705
aI16560
aI6770
aI1710
aI1711
aI14001
aI9909
aI9911
aI3769
aI5820
aI7581
aI3780
aI15197
aI14026
aI4727
aI4386
aI13697
aI3793
aI14036
aI6094
aI15993
aI3801
aI1755
aI6437
aI16097
aI16221
aI12010
aI5869
aI14063
aI2855
aI1783
aI14072
aI1787
aI1789
aI16129
aI1794
aI5894
aI1800
aI1806
aI3858
aI5907
aI16149
aI7961
aI10010
aI14109
aI14111
aI14859
aI15323
aI1828
aI16165
aI3879
aI1832
aI16169
aI5930
aI14123
aI14124
aI15666
aI1840
aI1843
aI10037
aI14134
aI16009
aI14139
aI5957
aI1862
aI12940
aI14154
aI6455
aI6677
aI1869
aI3918
aI16208
aI16209
aI1874
aI5971
aI3926
aI5976
aI5977
aI5979
aI1885
aI8030
aI5983
aI14176
aI7282
aI3938
aI1891
aI5989
aI14182
aI14185
aI1900
aI3048
aI6003
aI6004
aI3957
aI1911
aI16251
aI16252
aI6017
aI16258
aI14212
aI16261
aI1926
aI3975
aI3980
aI1934
aI14020
aI16277
aI14234
aI3997
aI2373
aI6049
aI6050
aI16292
aI747
aI14250
aI16301
aI13568
aI6064
aI16305
aI4018
aI1971
aI14260
aI1974
aI4023
aI10170
aI1695
aI14268
aI4033
aI16322
aI12230
aI6087
aI14284
aI1998
aI1999
aI6097
aI14291
aI14292
aI14297
aI6106
aI2017
aI15293
aI4067
aI14308
aI2022
aI4074
aI12270
aI16367
aI6129
aI14324
aI14327
aI4088
aI6139
atRp24
ag2
((lp25
I6146
aI8196
aI2055
aI8201
aI8205
aI12303
aI12304
aI12305
aI16402
aI12309
aI10262
aI8216
aI12314
aI27
aI8221
aI6174
aI4129
aI14373
aI12326
aI12331
aI16430
aI12339
aI16393
aI13047
aI12347
aI4157
aI4158
aI10304
aI12353
aI12358
aI4170
aI12365
aI11277
aI10324
aI16057
aI12378
aI6235
aI92
aI10336
aI2146
aI11963
aI2148
aI103
aI104
aI12395
aI10301
aI12399
aI12400
aI114
aI12404
aI10358
aI12407
aI16506
aI4220
aI14464
aI12420
aI12421
aI12423
aI8331
aI8338
aI8339
aI15726
aI12438
aI10394
aI16410
aI4805
aI8352
aI10401
aI8354
aI12451
aI2212
aI2214
aI4264
aI12458
aI8363
aI4269
aI4270
aI12317
aI12464
aI12466
aI4275
aI2078
aI4278
aI11295
aI2245
aI4296
aI4301
aI2254
aI15053
aI12623
aI8403
aI6358
aI15737
aI10460
aI6365
aI2273
aI226
aI12515
aI16422
aI10470
aI232
aI233
aI6378
aI12523
aI237
aI10478
aI16623
aI12624
aI16628
aI6389
aI6390
aI10487
aI12538
aI11989
aI11281
aI12545
aI12546
aI6405
aI12553
aI12554
aI12555
aI12558
aI271
aI12562
aI14611
aI8468
aI10519
aI12571
aI10524
aI12575
aI10529
aI6434
aI13019
aI12580
aI12582
aI295
aI12586
aI12588
aI14637
aI13021
aI12599
aI13023
aI318
aI4417
aI4421
aI4422
aI6471
aI12617
aI12618
aI12621
aI10574
aI4431
aI12559
aI12626
aI12627
aI12628
aI12633
aI12637
aI4446
aI13029
aI12640
aI12643
aI6504
aI12649
aI8559
aI14398
aI6523
aI8572
aI4477
aI2430
aI14720
aI15425
aI4487
aI12680
aI10638
aI14739
aI12697
aI14747
aI12704
aI14753
aI12706
aI9627
aI12708
aI12710
aI12714
aI13042
aI12880
aI2482
aI13043
aI12731
aI2493
aI12734
aI2495
aI12736
aI453
aI2504
aI2506
aI8651
aI12749
aI10702
aI467
aI13049
aI12761
aI12774
aI488
aI12777
aI2544
aI10737
aI12786
aI13054
aI12791
aI2553
aI12794
aI4605
aI12799
aI12800
aI515
aI12804
aI12805
aI12806
aI12810
aI2571
aI12813
aI4622
aI2575
aI6674
aI771
aI12821
aI2583
aI8728
aI6681
aI6682
aI12831
aI12833
aI10786
aI5211
aI548
aI12840
aI10793
aI8747
aI12845
aI12849
aI10806
aI8759
aI15090
aI2618
aI12859
aI6718
aI12863
aI12867
aI6724
aI10821
aI14919
aI12872
aI12873
aI12875
aI12386
aI10832
aI12387
aI12887
aI12388
aI2650
aI12891
aI605
aI609
aI4707
aI2660
aI6759
aI617
aI6762
aI12907
aI4719
aI10344
aI4723
aI12917
aI8824
aI13076
aI12922
aI12923
aI4732
aI12926
aI12928
aI6792
aI12937
aI652
aI12941
aI12943
aI6800
aI12945
aI12946
aI6804
aI12949
aI12951
aI12952
aI4761
aI2714
aI667
aI12958
aI12741
aI12961
aI8870
aI1137
aI12969
aI12971
aI12402
aI12977
aI12985
aI12988
aI2749
aI4798
aI12994
aI5238
aI13000
aI13003
aI13005
aI718
aI720
aI13009
aI10967
aI13017
aI11727
aI10973
aI2782
aI4831
aI13024
aI12070
aI13034
aI9341
aI10993
aI8946
aI2803
aI13044
aI15093
aI809
aI2809
aI6907
aI4862
aI13055
aI6915
aI13060
aI776
aI2825
aI11019
aI13072
aI13075
aI6932
aI8981
aI15129
aI13103
aI13084
aI13088
aI16189
aI8998
aI4905
aI13099
aI13102
aI11893
aI2869
aI6969
aI13114
aI9019
aI13116
aI829
aI830
aI13119
aI4928
aI4929
aI9026
aI12427
aI13124
aI11078
aI13793
aI13133
aI2897
aI13139
aI13113
aI13147
aI13148
aI13150
aI13154
aI13155
aI7012
aI13158
aI879
aI12776
aI2930
aI13171
aI13118
aI13175
aI13178
aI2940
aI13120
aI9108
aI2966
aI9113
aI13210
aI5020
aI12442
aI12784
aI11170
aI9123
aI9124
aI5033
aI5035
aI7084
aI11194
aI5051
aI11211
aI9166
aI7120
aI11219
aI11220
aI12035
aI15324
aI15332
aI9189
aI15336
aI7148
aI15341
aI12797
aI15344
aI11249
aI9202
aI1011
aI9205
aI3065
aI3067
aI7171
aI1030
aI1037
aI7182
aI12461
aI9233
aI11355
aI11284
aI5145
aI11291
aI11292
aI1054
aI7199
aI3110
aI11303
aI1064
aI3116
aI7219
aI1081
aI11325
aI5182
aI5184
aI11329
aI15426
aI12811
aI1092
aI5189
aI11335
aI5194
aI3157
aI16139
aI6671
aI11356
aI1117
aI11365
aI11367
aI11373
aI5231
aI9329
aI7283
aI11380
aI7286
aI1149
aI7295
aI10092
aI7307
aI1167
aI6680
aI15506
aI15514
aI12826
aI11426
aI9386
aI15534
aI11441
aI12520
aI3263
aI1222
aI11702
aI7369
aI5330
aI9430
aI5336
aI15582
aI5343
aI11490
aI11493
aI11494
aI1266
aI7412
aI15610
aI11515
aI1277
aI14568
aI11527
aI5387
aI15634
aI3349
aI15640
aI7455
aI7456
aI7466
aI13616
aI11569
aI5426
aI1332
aI11574
aI5433
aI11583
aI11584
aI3393
aI11588
aI5448
aI11594
aI13644
aI11599
aI11601
aI11605
aI13655
aI11609
aI10810
aI7519
aI9572
aI11621
aI11623
aI9582
aI9789
aI3440
aI11633
aI11637
aI9591
aI5012
aI11642
aI1403
aI15741
aI9599
aI7553
aI7554
aI5509
aI1414
aI7562
aI1420
aI11845
aI16005
aI11665
aI11668
aI5531
aI11678
aI3653
aI11681
aI1444
aI5542
aI13735
aI11688
aI11691
aI11506
aI11694
aI7601
aI3510
aI13751
aI11704
aI16445
aI11708
aI15805
aI13758
aI10485
aI9667
aI7622
aI12535
aI3535
aI11730
aI5593
aI11741
aI3550
aI11745
aI7654
aI9703
aI11752
aI11756
aI11757
aI11762
aI11763
aI11765
aI13817
aI13008
aI11777
aI3587
aI11786
aI3597
aI3598
aI11794
aI11796
aI13759
aI3612
aI12890
aI11806
aI1569
aI11811
aI11817
aI11818
aI11834
aI3644
aI5693
aI7742
aI15936
aI7749
aI3659
aI11852
aI15959
aI3672
aI7770
aI11867
aI11880
aI7786
aI12903
aI11884
aI1645
aI1648
aI9845
aI1658
aI11899
aI11900
aI14954
aI3714
aI13957
aI3724
aI16019
aI7828
aI1690
aI16027
aI12877
aI9890
aI5799
aI11944
aI11945
aI11946
aI5804
aI11951
aI11952
aI7858
aI12915
aI1716
aI11961
aI9914
aI1311
aI1724
aI3775
aI3778
aI12577
aI11980
aI16078
aI7888
aI3797
aI12273
aI11998
aI11216
aI9958
aI9959
aI7912
aI9961
aI12242
aI12017
aI12022
aI12024
aI16122
aI9979
aI12029
aI12030
aI16127
aI5891
aI5893
aI1798
aI12043
aI12044
aI15063
aI16143
aI14099
aI10005
aI12061
aI12063
aI1827
aI3876
aI12069
aI3878
aI11570
aI12080
aI12087
aI5944
aI10041
aI12814
aI12093
aI10047
aI1856
aI12256
aI12098
aI16012
aI12108
aI16206
aI12112
aI12114
aI12119
aI1883
aI8029
aI12128
aI12130
aI1894
aI12136
aI3948
aI8045
aI10096
aI11924
aI10108
aI8064
aI12162
aI16260
aI12165
aI3974
aI12167
aI12953
aI1938
aI3987
aI8085
aI6809
aI6040
aI12190
aI16288
aI4001
aI4006
aI4007
aI12201
aI12208
aI1970
aI12216
aI12959
aI12220
aI4623
aI12225
aI15069
aI1987
aI12237
aI6096
aI2002
aI12622
aI12247
aI6105
aI10202
aI8527
aI4061
aI4064
aI6113
aI678
aI12268
aI9001
aI8174
aI14321
aI12276
atRp26
ag2
((lp27
I4098
aI4101
aI13571
aI16395
aI2060
aI4110
aI8215
aI16408
aI14361
aI2075
aI14364
aI4125
aI14368
aI4130
aI2086
aI14375
aI8232
aI6492
aI6187
aI46
aI8240
aI51
aI6196
aI2102
aI4151
aI57
aI8252
aI6837
aI66
aI6838
aI6216
aI6217
aI2122
aI13849
aI13653
aI14414
aI2129
aI2132
aI8206
aI14425
aI8284
aI9073
aI8289
aI4194
aI8293
aI6252
aI4208
aI14449
aI6260
aI14454
aI4457
aI4216
aI2170
aI16512
aI2180
aI133
aI10374
aI135
aI9580
aI10380
aI16529
aI7875
aI4463
aI2204
aI2205
aI4254
aI9584
aI4260
aI4262
aI169
aI8362
aI2221
aI8368
aI8369
aI2227
aI12468
aI6325
aI16568
aI10425
aI6336
aI193
aI4294
aI14535
aI8392
aI8393
aI15394
aI16590
aI16592
aI2259
aI6357
aI8406
aI218
aI6363
aI8412
aI6367
aI4320
aI8417
aI8418
aI4324
aI2277
aI2278
aI9596
aI14570
aI4332
aI14574
aI2289
aI16425
aI8440
aI8442
aI8445
aI6408
aI9260
aI8458
aI14603
aI8460
aI8465
aI8467
aI14613
aI4375
aI8475
aI15066
aI13701
aI8481
aI2338
aI2342
aI6439
aI302
aI304
aI4402
aI4405
aI12602
aI735
aI8508
aI8548
aI8510
aI12607
aI4418
aI8049
aI16438
aI4424
aI4426
aI4430
aI6479
aI2384
aI12625
aI339
aI8532
aI341
aI2105
aI345
aI348
aI6500
aI14060
aI6502
aI4456
aI6505
aI4458
aI12651
aI1085
aI14706
aI13033
aI8596
aI14714
aI14717
aI6549
aI2434
aI6532
aI9577
aI391
aI393
aI8586
aI6543
aI4498
aI4499
aI7583
aI4501
aI2454
aI14743
aI10649
aI8602
aI3823
aI8604
aI14749
aI8377
aI2473
aI6571
aI14764
aI14765
aI14766
aI4529
aI8627
aI6582
aI4539
aI8637
aI446
aI8639
aI8640
aI4545
aI4547
aI8645
aI457
aI4554
aI6603
aI14799
aI12754
aI6222
aI4566
aI13732
aI6619
aI2524
aI4575
aI14816
aI6625
aI2532
aI14758
aI10726
aI14417
aI2537
aI2541
aI6639
aI14834
aI14420
aI5887
aI2559
aI12803
aI15446
aI6913
aI4619
aI8723
aI2581
aI4634
aI6683
aI8734
aI14879
aI544
aI4646
aI6695
aI6699
aI6701
aI14894
aI10801
aI2483
aI6708
aI8760
aI8528
aI7946
aI8766
aI8775
aI8776
aI6730
aI4685
aI8782
aI593
aI14931
aI4693
aI2647
aI6745
aI15119
aI14945
aI14947
aI3516
aI8811
aI8812
aI622
aI7613
aI4725
aI2680
aI8828
aI8829
aI4734
aI10880
aI641
aI643
aI4743
aI14444
aI8843
aI4749
aI7960
aI8855
aI664
aI2719
aI9670
aI2726
aI10919
aI2729
aI7524
aI683
aI6829
aI8880
aI13962
aI4787
aI6836
aI15134
aI694
aI4791
aI8888
aI4797
aI15042
aI4803
aI8900
aI710
aI6856
aI2761
aI6093
aI1143
aI6862
aI2770
aI2772
aI8917
aI2777
aI13018
aI15068
aI6879
aI6885
aI2793
aI2798
aI6896
aI7635
aI10999
aI4856
aI13052
aI765
aI8959
aI15105
aI15111
aI8884
aI8969
aI15117
aI783
aI6958
aI4886
aI4887
aI15128
aI798
aI8991
aI6945
aI2851
aI4902
aI4903
aI808
aI4231
aI5938
aI4910
aI9097
aI16053
aI821
aI823
aI15165
aI7529
aI4930
aI11082
aI9038
aI6996
aI854
aI13804
aI4958
aI7008
aI9057
aI16187
aI4968
aI15209
aI2922
aI9067
aI16055
aI2927
aI4977
aI16531
aI4980
aI9078
aI11127
aI9080
aI7999
aI9365
aI5952
aI9091
aI2948
aI2953
aI5002
aI5003
aI5004
aI5005
aI2958
aI9103
aI5016
aI921
aI15258
aI15261
aI15263
aI15264
aI7076
aI933
aI934
aI937
aI9130
aI939
aI942
aI8350
aI5047
aI5048
aI3001
aI7099
aI7100
aI3005
aI3008
aI8420
aI3016
aI3018
aI11213
aI979
aI5078
aI15321
aI7132
aI5086
aI9183
aI9184
aI6651
aI9194
aI5101
aI15346
aI7157
aI9206
aI4265
aI9208
aI3066
aI16554
aI7339
aI14509
aI9232
aI8707
aI7194
aI15391
aI9248
aI7202
aI7206
aI7210
aI11307
aI1068
aI9242
aI15198
aI9272
aI180
aI7401
aI3133
aI9280
aI7237
aI15430
aI3143
aI7243
aI1101
aI6328
aI16540
aI1110
aI9303
aI3164
aI1120
aI9320
aI7274
aI5227
aI3180
aI11375
aI7016
aI5235
aI5236
aI7285
aI15478
aI15479
aI5245
aI15065
aI3202
aI13882
aI11396
aI1162
aI15499
aI7311
aI1168
aI3217
aI3220
aI1173
aI3223
aI13466
aI9378
aI3236
aI15558
aI7025
aI1195
aI5292
aI1198
aI15540
aI1208
aI13611
aI7355
aI15548
aI15552
aI9409
aI5318
aI5665
aI15561
aI9079
aI14771
aI1230
aI5327
aI7376
aI5329
aI11476
aI7374
aI14748
aI15577
aI7388
aI1245
aI1247
aI9445
aI15590
aI9447
aI3305
aI5354
aI9451
aI9180
aI15597
aI5360
aI9458
aI9462
aI5367
aI1274
aI5371
aI5373
aI1278
aI16597
aI5379
aI1291
aI13580
aI3342
aI7442
aI7443
aI1300
aI9494
aI9496
aI9497
aI5402
aI8410
aI5407
aI15650
aI5415
aI1323
aI14303
aI3377
aI3381
aI7479
aI1336
aI14900
aI8910
aI13566
aI1348
aI3397
aI13638
aI7496
aI15244
aI13642
aI5453
aI7502
aI5688
aI3413
aI7513
aI9563
aI7516
aI5469
aI5470
aI5472
aI3428
aI1381
aI5481
aI15591
aI7532
aI1390
aI11631
aI5570
aI7537
aI15602
aI9590
aI5353
aI5497
aI9594
aI8230
aI5500
aI9603
aI8086
aI3468
aI11661
aI7568
aI16458
aI7577
aI15773
aI5535
aI1442
aI7754
aI1445
aI15782
aI9642
aI9644
aI1453
aI13897
aI9119
aI13756
aI1610
aI1473
aI13762
aI5571
aI11718
aI9671
aI3528
aI7415
aI9677
aI5583
aI13776
aI1491
aI13781
aI5590
aI5601
aI7651
aI1508
aI3558
aI3564
aI13906
aI16622
aI13812
aI3573
aI5622
aI9129
aI3578
aI1536
aI7681
aI7083
aI15327
aI13831
aI15882
aI13836
aI9475
aI7700
aI3606
aI3609
aI5664
aI13857
aI15907
aI3621
aI3623
aI3624
aI1578
aI16459
aI7729
aI3634
aI1591
aI7736
aI13881
aI5657
aI13886
aI5695
aI5698
aI13579
aI8118
aI13895
aI1609
aI3658
aI7756
aI13903
aI15952
aI3665
aI5714
aI5715
aI13582
aI3671
aI3678
aI15969
aI13925
aI3689
aI7787
aI3693
aI1646
aI7794
aI13587
aI3703
aI6329
aI5754
aI9851
aI9490
aI6602
aI16320
aI16003
aI14922
aI3717
aI14141
aI5768
aI14956
aI5770
aI3728
aI13971
aI16021
aI9467
aI5784
aI5790
aI7839
aI5800
aI1708
aI3759
aI16048
aI3762
aI14003
aI7860
aI5813
aI7862
aI1719
aI5817
aI1727
aI16067
aI16068
aI14675
aI1739
aI5838
aI5839
aI1745
aI1748
aI7894
aI16089
aI5853
aI1758
aI5855
aI13947
aI3812
aI1765
aI5862
aI16103
aI16104
aI14972
aI1772
aI14061
aI7918
aI637
aI6272
aI1791
aI7936
aI4736
aI1795
aI5892
aI16134
aI16137
aI1802
aI7950
aI2691
aI7956
aI5909
aI9177
aI1816
aI5913
aI7964
aI16157
aI1669
aI1824
aI1825
aI16164
aI16167
aI7977
aI9131
aI1838
aI16349
aI16176
aI7985
aI1842
aI14131
aI14132
aI16182
aI16183
aI1851
aI1853
aI7998
aI5951
aI3904
aI5956
aI8006
aI3911
aI16200
aI1866
aI3921
aI5970
aI8020
aI14165
aI16214
aI16219
aI16220
aI3937
aI315
aI4070
aI14183
aI14725
aI12264
aI1907
aI8053
aI6121
aI319
aI14204
aI1917
aI16254
aI14213
aI8070
aI1927
aI6025
aI9197
aI2712
aI14659
aI7225
aI6038
aI3993
aI4004
aI14255
aI8520
aI4019
aI4021
aI6070
aI16311
aI4029
aI6080
aI8129
aI4035
aI4038
aI12234
aI10189
aI14286
aI6100
aI8152
aI16348
aI14301
aI6111
aI6480
aI4066
aI8165
aI12262
aI4071
aI2024
aI2025
aI2030
aI14320
aI4083
aI16372
aI14326
aI681
aI14329
aI8191
atRp28
ag2
((lp29
I6144
aI12288
aI12294
aI12289
aI10250
aI14350
aI15021
aI11950
aI12310
aI23
aI12321
aI10275
aI4132
aI12327
aI10286
aI48
aI6194
aI55
aI12344
aI4153
aI14395
aI14402
aI68
aI10309
aI2119
aI10312
aI8267
aI8270
aI12368
aI12369
aI10323
aI4183
aI12210
aI6243
aI12390
aI12391
aI12392
aI2157
aI12398
aI4209
aI12406
aI4218
aI131
aI6276
aI14008
aI705
aI12433
aI12437
aI2199
aI12440
aI10393
aI14703
aI12894
aI6301
aI16546
aI4259
aI6308
aI12453
aI6311
aI12456
aI4267
aI172
aI174
aI10419
aI13001
aI4280
aI12895
aI12477
aI12479
aI12480
aI200
aI12491
aI12494
aI8399
aI2258
aI2270
aI16609
aI12514
aI227
aI12518
aI12522
aI235
aI10480
aI16626
aI6387
aI6395
aI12541
aI6400
aI12552
aI12556
aI2327
aI8472
aI15217
aI12576
aI12583
aI10536
aI12596
aI8504
aI6459
aI12606
aI12608
aI14658
aI8517
aI12614
aI14665
aI6475
aI10588
aI10597
aI2407
aI4460
aI14701
aI6511
aI6512
aI373
aI10621
aI4481
aI12675
aI6534
aI14727
aI6540
aI6541
aI12695
aI12699
aI12700
aI12702
aI11333
aI12709
aI2470
aI12711
aI8619
aI12717
aI10670
aI14768
aI10678
aI440
aI12703
aI12732
aI4541
aI13045
aI6592
aI13069
aI8643
aI8644
aI13046
aI8647
aI12744
aI6601
aI6604
aI6609
aI8662
aI12759
aI12760
aI473
aI12359
aI12763
aI6621
aI12767
aI12769
aI12771
aI12778
aI12783
aI12787
aI12788
aI12789
aI12790
aI4600
aI12793
aI12795
aI12796
aI12798
aI12802
aI4611
aI6662
aI12808
aI12809
aI12375
aI6668
aI527
aI12183
aI12817
aI14867
aI12820
aI12718
aI12825
aI12828
aI12829
aI12834
aI12836
aI12837
aI12838
aI12839
aI12498
aI12841
aI10795
aI12844
aI12846
aI2607
aI12040
aI2610
aI563
aI12852
aI12853
aI12854
aI12855
aI12856
aI12857
aI8762
aI8764
aI12861
aI12864
aI12866
aI6726
aI12871
aI14921
aI6731
aI14924
aI14925
aI12878
aI12879
aI592
aI12363
aI12884
aI12885
aI8792
aI12889
aI12893
aI606
aI4703
aI12896
aI12898
aI12901
aI14951
aI12904
aI14889
aI2666
aI12908
aI12909
aI12910
aI2671
aI12912
aI12913
aI8818
aI12916
aI12919
aI4728
aI10873
aI6780
aI12929
aI6786
aI12931
aI12933
aI12936
aI12938
aI12939
aI12942
aI14991
aI12944
aI12947
aI12948
aI13081
aI15002
aI12956
aI8867
aI12964
aI12965
aI5233
aI4776
aI12970
aI12973
aI12976
aI10929
aI12978
aI8883
aI4553
aI12986
aI12987
aI12989
aI12992
aI15041
aI12996
aI12997
aI12998
aI4807
aI4809
aI13002
aI13006
aI13007
aI13010
aI10963
aI13012
aI13013
aI13092
aI2779
aI13022
aI13026
aI13027
aI13028
aI13030
aI12753
aI13037
aI13038
aI13039
aI12914
aI10998
aI13048
aI13050
aI15099
aI13056
aI13057
aI13061
aI13062
aI2824
aI13065
aI15115
aI8973
aI13071
aI13074
aI12419
aI13078
aI13080
aI12847
aI13082
aI13083
aI13085
aI13086
aI13087
aI800
aI13089
aI8996
aI13093
aI13095
aI13096
aI13097
aI13098
aI14952
aI13104
aI13108
aI822
aI13111
aI13112
aI9017
aI13167
aI2879
aI13122
aI13123
aI4918
aI13126
aI13129
aI13130
aI7991
aI13135
aI13137
aI11826
aI13140
aI13141
aI9047
aI13144
aI13145
aI13146
aI9051
aI11103
aI13152
aI13153
aI7014
aI13160
aI13161
aI13164
aI13165
aI11118
aI7023
aI13168
aI13169
aI13170
aI12850
aI13172
aI13173
aI13174
aI11753
aI13176
aI13177
aI13179
aI13180
aI13181
aI13183
aI13184
aI13186
aI4996
aI13189
aI7047
aI13192
aI13196
aI9102
aI13199
aI15248
aI153
aI11160
aI13125
aI15268
aI5029
aI15277
aI944
aI13235
aI15200
aI11191
aI7102
aI13131
aI11204
aI11205
aI3028
aI9174
aI11770
aI15328
aI13672
aI11235
aI11237
aI11431
aI3054
aI11248
aI7155
aI11253
aI9210
aI5120
aI11269
aI1031
aI7179
aI3088
aI16218
aI15393
aI9253
aI7208
aI14172
aI15407
aI13151
aI7228
aI7230
aI15423
aI9281
aI11330
aI3141
aI12812
aI1099
aI9294
aI12472
aI9300
aI11351
aI12815
aI15453
aI9310
aI15455
aI5223
aI3185
aI9331
aI1140
aI15477
aI11388
aI12138
aI9342
aI15720
aI13445
aI15496
aI13064
aI15213
aI13166
aI14315
aI11419
aI9377
aI15524
aI15526
aI7335
aI7341
aI5296
aI15509
aI11444
aI7349
aI1209
aI15549
aI3267
aI11460
aI9413
aI11462
aI3272
aI5332
aI3289
aI6351
aI5341
aI11771
aI7392
aI7394
aI3299
aI7396
aI11500
aI1261
aI12999
aI13551
aI11511
aI11513
aI7418
aI3327
aI11521
aI15622
aI11528
aI7433
aI11532
aI3341
aI11535
aI11537
aI11538
aI15639
aI13188
aI9499
aI12455
aI15648
aI1313
aI11554
aI11556
aI13191
aI4658
aI5424
aI5425
aI12851
aI5428
aI12510
aI15670
aI13627
aI11580
aI7485
aI9536
aI5443
aI11591
aI11592
aI11595
aI11598
aI13648
aI14904
aI11603
aI12174
aI11612
aI12858
aI11614
aI1375
aI7520
aI11618
aI11835
aI3432
aI12860
aI11626
aI7531
aI11629
aI7535
aI11636
aI3445
aI7545
aI11644
aI7551
aI11649
aI11651
aI16141
aI9605
aI11654
aI15752
aI9611
aI11662
aI11501
aI1428
aI7573
aI11844
aI11676
aI13725
aI9632
aI9635
aI15780
aI12870
aI15789
aI7598
aI5555
aI11700
aI13749
aI14140
aI11707
aI7612
aI11709
aI11719
aI11721
aI11722
aI7627
aI15821
aI13143
aI15804
aI11733
aI9688
aI15834
aI14927
aI11740
aI1501
aI15841
aI11750
aI11857
aI3561
aI11754
aI12199
aI12882
aI11759
aI11761
aI1523
aI11767
aI9722
aI7423
aI13822
aI14592
aI3590
aI11783
aI3594
aI11790
aI14563
aI3608
aI3614
aI11807
aI11814
aI11782
aI3627
aI1581
aI7728
aI5681
aI1586
aI3635
aI11829
aI11529
aI3640
aI12212
aI1595
aI5692
aI15938
aI13892
aI11848
aI11854
aI11533
aI11856
aI5713
aI11859
aI3669
aI13011
aI5732
aI11866
aI15631
aI11870
aI15973
aI9828
aI11877
aI7783
aI11879
aI11886
aI11887
aI11889
aI11894
aI7799
aI12906
aI13950
aI13951
aI12876
aI11908
aI11910
aI3721
aI13977
aI5786
aI965
aI11937
aI11938
aI7844
aI9898
aI11948
aI626
aI9902
aI11960
aI7865
aI11962
aI11967
aI9921
aI14023
aI5410
aI11985
aI14041
aI7900
aI7902
aI12000
aI9954
aI12924
aI12016
aI12584
aI12021
aI14071
aI7928
aI5882
aI12032
aI7937
aI14084
aI9990
aI3848
aI12041
aI12042
aI12930
aI16142
aI10003
aI10008
aI10015
aI3872
aI11568
aI1831
aI7976
aI12073
aI7979
aI3884
aI12077
aI12079
aI12082
aI12083
aI10036
aI1673
aI15951
aI1852
aI12064
aI16497
aI12983
aI14159
aI12600
aI14162
aI16212
aI14167
aI1881
aI12122
aI10076
aI12065
aI12127
aI16234
aI16235
aI12140
aI3951
aI14654
aI15953
aI10107
aI12748
aI12157
aI15817
aI14211
aI12166
aI12169
aI1930
aI3982
aI11929
aI10138
aI14239
aI12192
aI5104
aI12197
aI6055
aI10158
aI8111
aI8114
aI1293
aI12213
aI11935
aI6076
aI14270
aI5109
aI4034
aI12228
aI12229
aI12232
aI8139
aI10194
aI12963
aI12244
aI12246
aI10199
aI12248
aI6110
aI10210
aI8166
aI4073
aI8171
aI10221
aI16366
aI12272
aI12275
aI12343
aI16378
aI10235
aI12286
aI10239
atRp30
ag2
((lp31
I2
aI4099
aI6486
aI15361
aI12
aI16299
aI2062
aI5115
aI4112
aI17
aI6162
aI4115
aI2069
aI22
aI3417
aI6170
aI6171
aI16412
aI14365
aI4126
aI2081
aI39
aI2088
aI2089
aI47
aI16434
aI2099
aI2100
aI4149
aI54
aI4154
aI16444
aI63
aI14401
aI16453
aI6156
aI2127
aI80
aI6225
aI16467
aI2134
aI89
aI4187
aI6236
aI15232
aI6239
aI6240
aI4193
aI5459
aI2156
aI6255
aI6414
aI4212
aI6261
aI2166
aI6263
aI6264
aI16507
aI2172
aI6634
aI4223
aI2176
aI2183
aI6280
aI15212
aI6283
aI140
aI6286
aI4240
aI2194
aI14485
aI14486
aI4250
aI6299
aI2206
aI4255
aI12450
aI163
aI14502
aI16552
aI5734
aI16509
aI185
aI14523
aI4286
aI16576
aI14529
aI14530
aI8907
aI14532
aI10440
aI2253
aI4302
aI6861
aI214
aI16599
aI4314
aI4315
aI378
aI14559
aI15056
aI16612
aI231
aI4330
aI14571
aI7782
aI14575
aI16627
aI16629
aI6185
aI8441
aI16634
aI4349
aI4354
aI4355
aI2308
aI16645
aI6419
aI14601
aI15746
aI4366
aI14607
aI4369
aI4371
aI276
aI279
aI281
aI283
aI4385
aI2339
aI296
aI2345
aI14634
aI299
aI4397
aI6448
aI2357
aI15412
aI14650
aI14536
aI4414
aI2370
aI3467
aI6478
aI2385
aI4438
aI6487
aI4440
aI7226
aI14688
aI12644
aI4453
aI6503
aI4465
aI3817
aI2426
aI4478
aI383
aI8578
aI15766
aI392
aI2441
aI2447
aI2453
aI8599
aI4510
aI2464
aI2468
aI2472
aI429
aI430
aI4528
aI14770
aI7923
aI4534
aI2487
aI442
aI4540
aI4551
aI14793
aI16397
aI6606
aI464
aI465
aI6610
aI4565
aI2518
aI471
aI2522
aI4574
aI6624
aI4176
aI6626
aI483
aI4580
aI2533
aI16383
aI489
aI490
aI14828
aI493
aI8686
aI2543
aI5544
aI83
aI14836
aI4599
aI14844
aI14845
aI511
aI514
aI4182
aI2567
aI523
aI524
aI14543
aI7256
aI4185
aI4632
aI4638
aI2593
aI4643
aI4860
aI15976
aI554
aI2603
aI556
aI14893
aI6703
aI561
aI2612
aI15454
aI4664
aI2619
aI2620
aI5898
aI4671
aI2624
aI2625
aI7606
aI1121
aI10824
aI4452
aI10829
aI5901
aI12881
aI6739
aI6740
aI15118
aI2646
aI601
aI603
aI2652
aI14778
aI14944
aI610
aI2664
aI8810
aI6763
aI16524
aI12921
aI2683
aI636
aI7659
aI640
aI4737
aI642
aI4740
aI645
aI15229
aI4744
aI650
aI15127
aI10895
aI656
aI657
aI4757
aI6814
aI15007
aI4774
aI4778
aI5575
aI686
aI688
aI15816
aI15027
aI4790
aI2743
aI15708
aI2747
aI8892
aI15044
aI6033
aI713
aI714
aI2763
aI2765
aI4816
aI6865
aI2771
aI14798
aI14600
aI10021
aI15074
aI740
aI4838
aI4561
aI16508
aI15082
aI750
aI751
aI4848
aI2806
aI6271
aI764
aI6911
aI15104
aI2817
aI16256
aI470
aI13063
aI16172
aI2828
aI2830
aI2833
aI15122
aI6935
aI11034
aI796
aI6943
aI13576
aI2854
aI4907
aI9005
aI4911
aI2823
aI819
aI4916
aI4917
aI15158
aI2871
aI5940
aI826
aI16530
aI15167
aI5611
aI15172
aI837
aI6982
aI15177
aI2892
aI6992
aI2901
aI15192
aI7002
aI7003
aI15201
aI15202
aI868
aI2918
aI4970
aI7020
aI14482
aI2926
aI2928
aI9077
aI15223
aI2936
aI4985
aI4586
aI5269
aI2944
aI2947
aI2949
aI7049
aI15242
aI7052
aI12781
aI2960
aI7062
aI2967
aI5017
aI2970
aI495
aI925
aI5022
aI7071
aI7073
aI838
aI2985
aI15275
aI941
aI2990
aI499
aI2998
aI951
aI11196
aI958
aI7103
aI5056
aI963
aI7109
aI7110
aI967
aI5964
aI971
aI15309
aI15310
aI5072
aI3026
aI7123
aI11221
aI4738
aI985
aI7131
aI989
aI990
aI7140
aI3046
aI5994
aI15339
aI5103
aI7152
aI1010
aI15351
aI5972
aI4607
aI1022
aI7169
aI5126
aI7175
aI5136
aI1041
aI5139
aI3093
aI15382
aI1047
aI5146
aI5149
aI13823
aI7200
aI11297
aI5156
aI4615
aI5981
aI7216
aI5172
aI3125
aI15415
aI15448
aI5178
aI15419
aI3134
aI3135
aI7236
aI5191
aI7244
aI7246
aI3151
aI7250
aI3155
aI1109
aI5206
aI7255
aI1112
aI5209
aI15381
aI7262
aI9313
aI5218
aI15654
aI1126
aI1127
aI3177
aI1132
aI7279
aI7281
aI3188
aI13429
aI4865
aI7292
aI8042
aI5247
aI7297
aI5251
aI7303
aI5257
aI5261
aI3214
aI3218
aI3221
aI13462
aI1175
aI15383
aI14997
aI5285
aI13482
aI7342
aI15535
aI5297
aI1204
aI7351
aI3257
aI3261
aI1214
aI7029
aI1216
aI3265
aI3266
aI7363
aI1223
aI11470
aI10445
aI7377
aI1234
aI7381
aI3286
aI7387
aI1244
aI3300
aI14499
aI3303
aI5352
aI5356
aI15570
aI5358
aI7037
aI3316
aI3317
aI3318
aI13560
aI7417
aI1275
aI6016
aI4651
aI13572
aI14595
aI3334
aI4680
aI2604
aI15627
aI5388
aI15630
aI1299
aI5396
aI5397
aI5400
aI15644
aI1309
aI13600
aI7458
aI7459
aI13606
aI7465
aI5418
aI7467
aI3374
aI1328
aI1333
aI13622
aI5435
aI5437
aI9543
aI5449
aI9548
aI15694
aI1361
aI1363
aI7509
aI1369
aI15706
aI7055
aI3420
aI1376
aI1378
aI6715
aI3430
aI5479
aI7528
aI5351
aI15725
aI13678
aI14909
aI3444
aI13685
aI5495
aI3453
aI15742
aI11647
aI5366
aI3458
aI9011
aI14913
aI5515
aI7564
aI3469
aI3471
aI13712
aI1425
aI5524
aI9622
aI7065
aI4335
aI1946
aI3486
aI13728
aI5537
aI3490
aI1448
aI3498
aI1451
aI7596
aI1455
aI11697
aI1462
aI7610
aI1468
aI3517
aI9662
aI15605
aI5572
aI3525
aI13766
aI1479
aI5576
aI1484
aI1485
aI15824
aI5586
aI15830
aI5591
aI1498
aI13788
aI13791
aI1505
aI1506
aI3555
aI5608
aI13802
aI3563
aI3568
aI7211
aI5624
aI7673
aI6393
aI1532
aI7679
aI15872
aI5635
aI1541
aI1543
aI1544
aI1545
aI15883
aI7698
aI6403
aI13846
aI2649
aI13915
aI1579
aI7725
aI13872
aI3633
aI5685
aI13577
aI13880
aI7737
aI7739
aI7746
aI13893
aI5703
aI5709
aI1614
aI1615
aI5712
aI13905
aI7779
aI3668
aI2318
aI5719
aI5721
aI13914
aI1627
aI1628
aI7774
aI5731
aI7780
aI3685
aI3686
aI15975
aI1640
aI7788
aI5741
aI7792
aI4712
aI3347
aI13940
aI13943
aI1656
aI5988
aI13946
aI4714
aI5758
aI5759
aI13952
aI3713
aI5767
aI8471
aI9871
aI16016
aI3729
aI13973
aI14617
aI16024
aI13981
aI16030
aI13596
aI3015
aI3757
aI3758
aI15645
aI7795
aI3764
aI7540
aI3766
aI14281
aI5822
aI1728
aI7115
aI14021
aI5831
aI13944
aI7892
aI16201
aI7898
aI14044
aI3808
aI14288
aI14050
aI3813
aI3814
aI7911
aI3816
aI2684
aI1770
aI7765
aI5873
aI7922
aI3827
aI3828
aI16117
aI7929
aI12026
aI3836
aI15659
aI1796
aI3846
aI3847
aI3849
aI16138
aI3851
aI16140
aI1805
aI15574
aI10001
aI15662
aI3862
aI3863
aI16084
aI16155
aI5920
aI7971
aI5924
aI1829
aI1830
aI3883
aI7980
aI1837
aI3886
aI15325
aI3889
aI3892
aI16350
aI16184
aI2698
aI7819
aI10055
aI14152
aI14153
aI14156
aI3920
aI3924
aI1878
aI3933
aI1887
aI16224
aI1889
aI3940
aI5990
aI3944
aI1898
aI1902
aI1904
aI6006
aI8056
aI6015
aI1920
aI1922
aI16259
aI14215
aI16266
aI337
aI3985
aI16274
aI1943
aI15204
aI3994
aI13911
aI1955
aI14246
aI6058
aI7495
aI1967
aI14256
aI14323
aI10166
aI14264
aI4025
aI4027
aI7910
aI10175
aI14277
aI16339
aI14280
aI6089
aI6090
aI1995
aI16333
aI16334
aI16335
aI3532
aI4049
aI16338
aI4051
aI4052
aI2006
aI6103
aI2010
aI14302
aI14306
aI2019
aI8529
aI6614
aI16361
aI12266
aI14317
aI2031
aI6128
aI16369
aI2035
aI4085
aI12280
aI4091
aI13707
aI14335
atRp32
ag2
((lp33
I1
aI12290
aI12292
aI6
aI12297
aI11
aI10256
aI12306
aI4116
aI4118
aI15705
aI3076
aI10267
aI29
aI30
aI12320
aI8227
aI36
aI41
aI2090
aI12332
aI12335
aI12336
aI10289
aI6195
aI10292
aI6199
aI14880
aI12345
aI12346
aI14687
aI8253
aI2110
aI12351
aI4107
aI16452
aI12357
aI10311
aI12360
aI12362
aI14413
aI84
aI2133
aI10327
aI6842
aI12385
aI2151
aI12603
aI12397
aI6254
aI10351
aI6256
aI2161
aI117
aI119
aI12308
aI125
aI129
aI12418
aI8324
aI16520
aI139
aI142
aI144
aI6290
aI6292
aI11972
aI10396
aI157
aI12447
aI12448
aI161
aI12315
aI6309
aI8358
aI167
aI2217
aI8562
aI16413
aI3784
aI4274
aI12467
aI14516
aI6326
aI183
aI9417
aI187
aI189
aI12661
aI12483
aI14533
aI6343
aI12488
aI12489
aI12492
aI207
aI208
aI15736
aI210
aI211
aI8404
aI12504
aI6362
aI12507
aI16607
aI16608
aI225
aI8421
aI14569
aI4346
aI12539
aI12540
aI16637
aI12543
aI12544
aI14594
aI16644
aI8454
aI12551
aI6412
aI10509
aI12560
aI12561
aI12563
aI15406
aI6423
aI12578
aI291
aI12678
aI12337
aI12585
aI8494
aI10545
aI4403
aI14647
aI8507
aI12682
aI12610
aI6467
aI2372
aI9271
aI4434
aI12686
aI9273
aI6488
aI6884
aI2394
aI4445
aI6495
aI10592
aI8551
aI8552
aI12650
aI14699
aI8557
aI14702
aI12656
aI12657
aI2418
aI371
aI8564
aI14709
aI12666
aI12669
aI12670
aI12671
aI10624
aI14722
aI5308
aI4486
aI10632
aI14730
aI396
aI397
aI398
aI12689
aI12355
aI14741
aI10647
aI12766
aI10653
aI8606
aI14405
aI10658
aI4515
aI8612
aI421
aI424
aI14763
aI6574
aI12721
aI8626
aI12723
aI10654
aI10679
aI11679
aI6589
aI10689
aI2498
aI15435
aI12742
aI10695
aI8650
aI12747
aI12495
aI10706
aI12755
aI15564
aI475
aI12765
aI11268
aI2469
aI480
aI482
aI12027
aI6628
aI12773
aI12775
aI6635
aI12780
aI10734
aI8616
aI15538
aI6644
aI6645
aI10742
aI2551
aI12372
aI8708
aI8711
aI14423
aI14862
aI528
aI14865
aI8722
aI4630
aI2585
aI6686
aI8736
aI552
aI12039
aI6700
aI559
aI6704
aI10803
aI2613
aI12725
aI2627
aI4677
aI14920
aI10825
aI4683
aI2637
aI590
aI14928
aI8788
aI2653
aI10846
aI6753
aI12770
aI10852
aI614
aI4713
aI2668
aI11955
aI6774
aI8825
aI635
aI6791
aI4746
aI13797
aI6799
aI8302
aI2713
aI15012
aI6823
aI10921
aI6827
aI12972
aI6941
aI698
aI699
aI15036
aI12991
aI11625
aI10953
aI12299
aI6870
aI2778
aI4834
aI4836
aI8936
aI4845
aI12413
aI2804
aI1150
aI4857
aI13051
aI11005
aI767
aI12096
aI13058
aI12417
aI4872
aI11024
aI13073
aI6933
aI11142
aI12506
aI6940
aI11037
aI12081
aI2856
aI2857
aI15146
aI9004
aI818
aI10035
aI11061
aI10719
aI14802
aI831
aI12712
aI6980
aI2887
aI4941
aI848
aI9041
aI12430
aI15191
aI4952
aI12772
aI9050
aI11100
aI11749
aI2917
aI872
aI11115
aI8349
aI15536
aI11129
aI11137
aI7046
aI7048
aI13195
aI9101
aI9104
aI2963
aI11156
aI12782
aI12441
aI836
aI9118
aI11176
aI8348
aI11178
aI3229
aI948
aI9988
aI9143
aI500
aI7098
aI5055
aI9376
aI3010
aI11214
aI3023
aI5073
aI15317
aI3031
aI11228
aI11230
aI165
aI996
aI15334
aI13945
aI15342
aI5489
aI12445
aI15347
aI12457
aI5112
aI7163
aI7680
aI1028
aI5130
aI9228
aI15374
aI15924
aI9048
aI11288
aI11289
aI14356
aI7201
aI14629
aI15401
aI11424
aI5165
aI3118
aI15408
aI11784
aI11314
aI9267
aI9269
aI3127
aI13369
aI11323
aI9279
aI3136
aI5185
aI11152
aI8374
aI2231
aI15440
aI5201
aI7251
aI11350
aI3161
aI15450
aI3166
aI11362
aI15460
aI7356
aI1134
aI14525
aI1136
aI11379
aI12137
aI12151
aI7290
aI7294
aI11391
aI16061
aI1899
aI7301
aI11457
aI5256
aI3228
aI7325
aI9374
aI5280
aI11425
aI7336
aI11437
aI9390
aI3248
aI11464
aI14126
aI14195
aI15541
aI1207
aI1212
aI3262
aI11455
aI11456
aI5313
aI9410
aI7368
aI6451
aI11467
aI11468
aI1233
aI9431
aI11480
aI12180
aI11483
aI12496
aI11492
aI15589
aI15181
aI11496
aI12658
aI11504
aI7413
aI11512
aI1276
aI5377
aI11522
aI11524
aI12161
aI11479
aI9485
aI9774
aI1303
aI3355
aI11548
aI3357
aI9502
aI3359
aI5408
aI10800
aI13604
aI11557
aI11558
aI11560
aI5419
aI9516
aI11567
aI3378
aI9523
aI15669
aI13624
aI3385
aI1339
aI1340
aI7487
aI13632
aI5442
aI11587
aI1349
aI12513
aI9544
aI11452
aI5455
aI11600
aI1364
aI15701
aI5464
aI13657
aI11610
aI9564
aI9567
aI1377
aI5474
aI2228
aI11620
aI11571
aI7533
aI3441
aI7538
aI11155
aI13890
aI1399
aI11640
aI1401
aI5502
aI15745
aI11650
aI15749
aI15750
aI1417
aI11658
aI9613
aI11670
aI11674
aI9631
aI5538
aI13894
aI5543
aI13737
aI11692
aI11695
aI12436
aI15793
aI11699
aI11701
aI15801
aI9661
aI11714
aI11717
aI13768
aI9673
aI15819
aI11724
aI11729
aI11732
aI7640
aI7650
aI1509
aI15846
aI13799
aI1514
aI11773
aI11775
aI3584
aI5634
aI5636
aI11781
aI3592
aI13833
aI5642
aI5643
aI11789
aI15895
aI12548
aI16077
aI15279
aI15927
aI9759
aI11808
aI11812
aI12550
aI11815
aI15913
aI11819
aI11820
aI7726
aI11823
aI3636
aI9782
aI11831
aI15284
aI11836
aI11837
aI11838
aI10165
aI11842
aI3651
aI7748
aI11846
aI11873
aI10508
aI11850
aI15287
aI5708
aI1613
aI5711
aI7762
aI12217
aI11864
aI11871
aI11872
aI13921
aI11878
aI1639
aI8124
aI15978
aI11883
aI11890
aI11892
aI11881
aI9849
aI9850
aI5757
aI11902
aI3711
aI11904
aI12224
aI12126
aI10353
aI9864
aI11913
aI1674
aI11915
aI9868
aI3727
aI11921
aI1683
aI11925
aI11927
aI3736
aI3737
aI11932
aI11934
aI11939
aI13992
aI1706
aI5805
aI14002
aI1715
aI11965
aI1729
aI11970
aI1732
aI3783
aI5832
aI16073
aI1741
aI12265
aI11897
aI16088
aI1753
aI16090
aI10191
aI11996
aI7901
aI11999
aI5859
aI12004
aI12006
aI11217
aI11993
aI12011
aI7917
aI16110
aI1782
aI16120
aI9977
aI7931
aI12471
aI1792
aI15199
aI12036
aI5895
aI9994
aI12046
aI10000
aI5905
aI10002
aI12051
aI10004
aI12057
aI3866
aI12060
aI5922
aI12593
aI14983
aI5934
aI11912
aI307
aI10039
aI5945
aI5087
aI12260
aI8000
aI12100
aI14150
aI12103
aI12105
aI14155
aI8012
aI12109
aI12115
aI12116
aI8022
aI8164
aI5982
aI12131
aI1892
aI8037
aI3388
aI8043
aI12141
aI12142
aI8047
aI12146
aI8051
aI12148
aI3959
aI10110
aI11541
aI12163
aI6021
aI12170
aI10129
aI12178
aI6036
aI12181
aI3990
aI8089
aI12271
aI12188
aI14238
aI12193
aI12194
aI6053
aI6054
aI16296
aI6062
aI12207
aI1973
aI1976
aI10169
aI1980
aI1984
aI1985
aI14274
aI16324
aI12231
aI4045
aI6095
aI16336
aI11256
aI2003
aI6101
aI8151
aI16344
aI12250
aI12252
aI12253
aI12254
aI12257
aI6116
aI14311
aI10236
aI8175
aI16368
aI4081
aI12274
aI12279
aI4089
aI12282
aI6140
aI12287
atRp34
ag2
((lp35
I13298
aI12298
aI12311
aI13316
aI4128
aI2082
aI10276
aI6182
aI14378
aI12333
aI12334
aI8244
aI13321
aI8250
aI6204
aI10302
aI16450
aI2742
aI2118
aI8264
aI4169
aI4173
aI12366
aI4178
aI12371
aI12373
aI4184
aI4188
aI12382
aI98
aI102
aI8297
aI14448
aI2164
aI8313
aI4219
aI12415
aI4238
aI12431
aI12434
aI12995
aI4804
aI10395
aI8356
aI12459
aI12460
aI12462
aI6319
aI4273
aI8371
aI12469
aI4282
aI13509
aI8389
aI2249
aI34
aI2266
aI10459
aI6370
aI6373
aI12519
aI8428
aI12525
aI238
aI241
aI8435
aI10486
aI2300
aI13354
aI14602
aI14604
aI270
aI13357
aI10517
aI14623
aI14625
aI12581
aI8489
aI6442
aI12591
aI10565
aI15073
aI12616
aI8523
aI346
aI2395
aI13370
aI13371
aI13714
aI10606
aI388
aI12684
aI1773
aI8594
aI10646
aI408
aI12698
aI2460
aI15085
aI6564
aI4527
aI13384
aI6578
aI8628
aI12727
aI2490
aI444
aI445
aI14786
aI12739
aI4549
aI8646
aI13260
aI12746
aI2508
aI8653
aI12764
aI13392
aI14823
aI12779
aI10733
aI12785
aI12792
aI4601
aI8699
aI12801
aI13398
aI6665
aI2573
aI526
aI2136
aI12819
aI12822
aI12823
aI13525
aI12827
aI6684
aI2589
aI12830
aI12832
aI4642
aI14883
aI2602
aI8748
aI12848
aI12724
aI13066
aI12865
aI12874
aI591
aI2641
aI2643
aI13386
aI12886
aI12892
aI2657
aI4706
aI12902
aI616
aI12911
aI13387
aI12918
aI12920
aI2681
aI12925
aI4739
aI12932
aI8837
aI12934
aI12935
aI14986
aI8854
aI2711
aI12955
aI12957
aI12962
aI12966
aI4775
aI12968
aI6825
aI12974
aI12975
aI12981
aI10934
aI2748
aI15039
aI704
aI2753
aI6851
aI2756
aI13004
aI13090
aI6864
aI13015
aI731
aI732
aI13025
aI13459
aI13035
aI13036
aI10989
aI12982
aI13041
aI13255
aI6908
aI766
aI5589
aI6914
aI15114
aI13067
aI15490
aI13070
aI11023
aI13077
aI8985
aI6946
aI13094
aI8668
aI13106
aI13107
aI13109
aI2875
aI6973
aI13121
aI835
aI13128
aI2891
aI13132
aI13134
aI9044
aI13454
aI13142
aI4951
aI13149
aI13157
aI13159
aI13162
aI13163
aI11117
aI7315
aI15919
aI13182
aI7039
aI15233
aI13187
aI900
aI902
aI15239
aI13193
aI13194
aI9100
aI13197
aI13198
aI13200
aI13201
aI13202
aI13204
aI13206
aI6297
aI13208
aI923
aI13212
aI13213
aI926
aI13215
aI13217
aI13218
aI13219
aI13220
aI13221
aI13222
aI2545
aI13226
aI13228
aI13229
aI13230
aI13231
aI13232
aI13233
aI13234
aI13236
aI11189
aI13238
aI13239
aI13240
aI13241
aI13242
aI13243
aI13244
aI9149
aI13246
aI13247
aI13248
aI13249
aI13250
aI13252
aI13254
aI7111
aI9160
aI13257
aI13258
aI13259
aI11212
aI13261
aI13262
aI13263
aI13264
aI13265
aI13267
aI13268
aI13269
aI13270
aI13272
aI13273
aI13274
aI13275
aI13276
aI13277
aI13278
aI13280
aI13281
aI13282
aI13283
aI13284
aI13285
aI13286
aI13287
aI1000
aI13290
aI9195
aI13293
aI13295
aI13296
aI13297
aI5106
aI13299
aI13300
aI13301
aI13302
aI13303
aI13304
aI13306
aI13307
aI13308
aI7165
aI13311
aI13312
aI13313
aI13315
aI15364
aI15190
aI13318
aI13319
aI13320
aI1033
aI13323
aI13324
aI13325
aI13326
aI13327
aI13328
aI13329
aI13330
aI13331
aI7188
aI13333
aI13334
aI13335
aI13336
aI13337
aI13338
aI13339
aI13340
aI13341
aI13342
aI13343
aI13344
aI13345
aI13346
aI13347
aI13348
aI13349
aI13350
aI13351
aI13352
aI13353
aI5162
aI13355
aI13356
aI3117
aI7214
aI13359
aI13360
aI13361
aI13362
aI13363
aI13364
aI13365
aI13366
aI13367
aI13368
aI9274
aI3131
aI13372
aI13373
aI13374
aI13375
aI13376
aI13377
aI13378
aI13379
aI13380
aI13381
aI5985
aI5192
aI13385
aI11338
aI5195
aI13389
aI13390
aI13391
aI3152
aI13393
aI13394
aI13395
aI13396
aI13397
aI7254
aI13399
aI13400
aI13401
aI13402
aI13403
aI13404
aI13405
aI13406
aI13407
aI13408
aI13409
aI13410
aI13411
aI13412
aI13413
aI13414
aI13415
aI13416
aI13417
aI15466
aI11371
aI13421
aI13422
aI13423
aI13424
aI13425
aI13426
aI13428
aI13430
aI13431
aI13432
aI13433
aI13434
aI13435
aI13436
aI13437
aI13438
aI13439
aI13441
aI13442
aI13443
aI13444
aI13447
aI13448
aI13449
aI13450
aI13451
aI13452
aI13453
aI9358
aI13455
aI13456
aI13458
aI1171
aI13460
aI13461
aI13463
aI13464
aI13465
aI13467
aI13468
aI5277
aI13470
aI13471
aI13472
aI13473
aI13474
aI13475
aI13476
aI13477
aI13479
aI13480
aI5289
aI3242
aI13483
aI13484
aI13487
aI13488
aI13490
aI13491
aI13492
aI13493
aI13494
aI13495
aI13496
aI13497
aI13498
aI13499
aI13500
aI13501
aI13502
aI13503
aI13504
aI13505
aI13507
aI13508
aI1221
aI13510
aI13511
aI13512
aI13513
aI13514
aI13515
aI5326
aI13519
aI13520
aI13521
aI13522
aI13523
aI13518
aI7382
aI13527
aI13528
aI13529
aI13530
aI5339
aI11484
aI13533
aI13534
aI13535
aI3296
aI1249
aI13538
aI1251
aI1252
aI7397
aI13542
aI13543
aI13544
aI13545
aI13546
aI13548
aI11503
aI12842
aI11519
aI1283
aI9477
aI13185
aI1289
aI9486
aI1295
aI3346
aI5398
aI11543
aI11545
aI15642
aI15643
aI11549
aI11551
aI13531
aI13190
aI11561
aI3370
aI11565
aI13620
aI11575
aI11576
aI9531
aI9534
aI13536
aI7393
aI15690
aI11596
aI13539
aI7512
aI13540
aI5466
aI1371
aI11615
aI7523
aI13669
aI11622
aI7534
aI11632
aI15733
aI13481
aI3452
aI1413
aI5511
aI3465
aI13207
aI9615
aI11664
aI5522
aI13716
aI5532
aI13211
aI13734
aI11687
aI15786
aI11693
aI3506
aI9652
aI13214
aI13753
aI13526
aI13537
aI7634
aI10147
aI3541
aI13469
aI7644
aI11744
aI11746
aI7658
aI13223
aI1518
aI12883
aI11768
aI13824
aI13825
aI9739
aI16456
aI15444
aI1559
aI9755
aI5661
aI11810
aI9764
aI14257
aI1629
aI13419
aI11828
aI9785
aI13237
aI5699
aI11847
aI3660
aI11858
aI11865
aI9821
aI9834
aI13245
aI15990
aI7802
aI7803
aI11882
aI11905
aI1667
aI11909
aI1680
aI13969
aI5783
aI13968
aI11933
aI11941
aI13991
aI11947
aI7852
aI13256
aI11582
aI16054
aI11966
aI11968
aI3785
aI5835
aI1740
aI1742
aI11984
aI1746
aI11987
aI16087
aI1768
aI12009
aI12013
aI12020
aI14075
aI5884
aI3841
aI14892
aI12045
aI5902
aI16144
aI16148
aI16150
aI12056
aI14639
aI12062
aI12067
aI14982
aI12076
aI5935
aI1848
aI14138
aI12092
aI5954
aI12099
aI1860
aI16223
aI12129
aI13020
aI10086
aI16231
aI10094
aI13288
aI12149
aI3958
aI1913
aI12156
aI16253
aI10113
aI13291
aI1929
aI8078
aI16272
aI14232
aI13978
aI6046
aI8098
aI8099
aI12202
aI12205
aI15005
aI10161
aI8116
aI6077
aI12235
aI10192
aI4063
aI12263
aI8169
aI13309
atRp36
ag2
((lp37
I2051
aI10246
aI9970
aI10258
aI21
aI10263
aI8218
aI6172
aI16095
aI2079
aI10272
aI33
aI10274
aI10278
aI4144
aI6835
aI10294
aI10295
aI10296
aI10297
aI10298
aI2399
aI10300
aI14399
aI14403
aI4164
aI8262
aI8269
aI16464
aI6228
aI10326
aI2135
aI14426
aI14427
aI10337
aI10338
aI16484
aI10598
aI6247
aI16491
aI4205
aI16495
aI10361
aI10362
aI6267
aI10366
aI6165
aI10368
aI6274
aI10371
aI14468
aI4229
aI12422
aI10377
aI10381
aI8334
aI8335
aI8337
aI146
aI8341
aI2198
aI16440
aI154
aI155
aI16069
aI162
aI4261
aI16550
aI8360
aI10412
aI10413
aI10417
aI10418
aI16564
aI8373
aI6327
aI14521
aI10426
aI10427
aI8381
aI10430
aI2239
aI4288
aI8387
aI8388
aI3446
aI6344
aI204
aI2256
aI8401
aI6356
aI10455
aI16600
aI10458
aI6364
aI10463
aI8416
aI16610
aI6371
aI228
aI10469
aI16614
aI10471
aI10472
aI10473
aI10474
aI2283
aI10476
aI14576
aI10481
aI8915
aI12534
aI4343
aI248
aI10489
aI10493
aI254
aI257
aI10498
aI10499
aI263
aI10504
aI10507
aI8462
aI10511
aI10681
aI8466
aI4372
aI4374
aI6426
aI4379
aI6430
aI6112
aI16432
aI4387
aI10534
aI14635
aI14391
aI10541
aI10543
aI2356
aI12597
aI2360
aI2363
aI10557
aI10308
aI9952
aI8514
aI326
aI327
aI2376
aI2379
aI10573
aI10575
aI336
aI10577
aI16441
aI10586
aI4443
aI15306
aI10590
aI351
aI10640
aI10299
aI4454
aI359
aI360
aI2409
aI10602
aI8555
aI2413
aI366
aI16038
aI10609
aI6516
aI2422
aI2423
aI8568
aI14715
aI10622
aI8575
aI385
aI6530
aI2436
aI4488
aI10633
aI10634
aI4491
aI2444
aI9765
aI8590
aI2448
aI14738
aI8260
aI6557
aI414
aI8611
aI10660
aI10661
aI4520
aI10666
aI2476
aI6573
aI969
aI436
aI10677
aI14774
aI6585
aI8636
aI5878
aI9975
aI461
aI2510
aI463
aI14801
aI6612
aI2517
aI10711
aI6617
aI9295
aI14814
aI14757
aI8674
aI6627
aI15101
aI6643
aI9982
aI502
aI6647
aI6650
aI4606
aI14849
aI10448
aI534
aI539
aI9838
aI2591
aI8738
aI6694
aI8743
aI6696
aI553
aI14890
aI4655
aI4659
aI4660
aI2614
aI9993
aI10676
aI4675
aI14433
aI587
aI4686
aI2640
aI2642
aI7267
aI4692
aI8790
aI4695
aI2648
aI14937
aI4698
aI8798
aI607
aI15296
aI8808
aI14955
aI6766
aI6768
aI14961
aI14962
aI6771
aI3518
aI632
aI6781
aI6782
aI6795
aI6253
aI6801
aI2707
aI6806
aI2715
aI668
aI8861
aI14789
aI15010
aI2723
aI2724
aI8874
aI13767
aI687
aI6834
aI3187
aI4792
aI8891
aI6845
aI707
aI8905
aI15054
aI15055
aI6867
aI2773
aI13016
aI730
aI2781
aI734
aI15072
aI6882
aI10363
aI745
aI8140
aI749
aI6894
aI10527
aI6897
aI6904
aI13053
aI777
aI6922
aI2827
aI8975
aI11210
aI2834
aI6931
aI15150
aI2839
aI2843
aI15493
aI4898
aI15139
aI2852
aI14470
aI2862
aI6961
aI4914
aI15155
aI2868
aI15163
aI4924
aI833
aI4931
aI2885
aI9030
aI6984
aI15781
aI845
aI6991
aI2896
aI10040
aI10382
aI4950
aI2903
aI14554
aI10383
aI4957
aI16191
aI15203
aI9020
aI9069
aI7022
aI881
aI15305
aI9083
aI8213
aI7038
aI10389
aI7041
aI15234
aI15236
aI6294
aI15238
aI14145
aI904
aI15241
aI7050
aI15245
aI5007
aI912
aI14147
aI5014
aI16193
aI6981
aI11168
aI9121
aI5026
aI9126
aI11175
aI13224
aI14218
aI7668
aI15292
aI9152
aI2550
aI15303
aI5065
aI9162
aI9163
aI973
aI15312
aI5074
aI7124
aI10062
aI15997
aI16195
aI988
aI10405
aI15331
aI10406
aI15335
aI15337
aI9198
aI7151
aI7153
aI7154
aI3060
aI5117
aI15370
aI9227
aI15372
aI9230
aI1039
aI16265
aI3089
aI9236
aI15384
aI7193
aI1050
aI15547
aI5152
aI9256
aI9263
aI1073
aI9268
aI15417
aI1084
aI9278
aI3137
aI5188
aI9286
aI11337
aI9291
aI9292
aI1549
aI5204
aI15445
aI11353
aI9402
aI9311
aI5219
aI9317
aI9318
aI7272
aI1129
aI5226
aI15467
aI10223
aI13745
aI9330
aI1139
aI9517
aI16347
aI9337
aI16405
aI3197
aI7296
aI10432
aI10091
aI9349
aI7302
aI15928
aI9352
aI3210
aI3216
aI6339
aI3222
aI9368
aI15515
aI9373
aI7326
aI9723
aI15522
aI13851
aI9381
aI9387
aI3244
aI3245
aI1199
aI9396
aI15542
aI9401
aI5306
aI6687
aI9315
aI5321
aI9929
aI1228
aI15565
aI3278
aI5328
aI11478
aI5335
aI3290
aI9435
aI9436
aI3294
aI9439
aI8400
aI5347
aI15596
aI9453
aI1262
aI10109
aI7421
aI15616
aI9473
aI13570
aI9476
aI3333
aI9479
aI9482
aI9487
aI15633
aI11540
aI1301
aI15638
aI10116
aI8751
aI5405
aI3726
aI9505
aI3365
aI5416
aI15658
aI16263
aI5421
aI15663
aI9521
aI7477
aI10121
aI3389
aI14560
aI7493
aI9545
aI14903
aI3404
aI15693
aI3406
aI1359
aI9784
aI13650
aI9443
aI13656
aI2959
aI15716
aI13674
aI5486
aI16345
aI5494
aI13689
aI14504
aI15740
aI9597
aI1416
aI9610
aI15757
aI3470
aI15967
aI6723
aI9623
aI15768
aI5700
aI1436
aI15774
aI9797
aI7072
aI3493
aI5545
aI9646
aI15791
aI9649
aI13746
aI5558
aI7607
aI15800
aI5566
aI7615
aI9664
aI11713
aI8779
aI15814
aI10145
aI7625
aI9675
aI11726
aI15823
aI1493
aI7639
aI13787
aI7645
aI9700
aI7653
aI9704
aI14930
aI5614
aI1520
aI15858
aI9715
aI3572
aI9717
aI1526
aI5623
aI1528
aI1531
aI5629
aI15873
aI10155
aI10497
aI7688
aI11787
aI15885
aI15886
aI10444
aI15893
aI14263
aI7705
aI10213
aI1567
aI15906
aI15909
aI9766
aI13821
aI8455
aI15916
aI9777
aI7730
aI10163
aI5684
aI1589
aI9783
aI11832
aI14374
aI7741
aI7745
aI3652
aI1605
aI5707
aI9806
aI7760
aI9809
aI13912
aI15962
aI15739
aI9822
aI9829
aI7781
aI9831
aI5737
aI13927
aI10514
aI7790
aI1647
aI5745
aI9843
aI7796
aI5751
aI9848
aI3709
aI9854
aI9855
aI16000
aI10176
aI9858
aI9859
aI7812
aI7814
aI13959
aI16010
aI1677
aI1678
aI7824
aI7825
aI9875
aI1684
aI3733
aI1686
aI13593
aI16487
aI16025
aI3741
aI10181
aI7841
aI13990
aI1703
aI9900
aI1709
aI16046
aI3761
aI3763
aI8478
aI14007
aI3771
aI9741
aI14013
aI9918
aI9920
aI14019
aI9925
aI7881
aI5834
aI11979
aI3790
aI3794
aI14039
aI5851
aI9949
aI3807
aI7904
aI3810
aI16101
aI13266
aI9967
aI9969
aI3826
aI10195
aI3830
aI5879
aI16121
aI14077
aI1790
aI3712
aI3842
aI9987
aI14086
aI9992
aI7945
aI6743
aI1325
aI10153
aI1815
aI14104
aI7962
aI16156
aI14110
aI2311
aI10017
aI10019
aI10020
aI14118
aI14120
aI10027
aI5932
aI16174
aI10154
aI1845
aI8654
aI14644
aI16186
aI14519
aI3902
aI9525
aI12097
aI10637
aI3908
aI8007
aI8014
aI6456
aI1875
aI5774
aI10078
aI8031
aI8032
aI14178
aI10083
aI1896
aI10089
aI3947
aI16237
aI10095
aI3952
aI14194
aI8052
aI14199
aI14200
aI10105
aI6011
aI6013
aI3966
aI9877
aI3972
aI2519
aI10119
aI3977
aI10122
aI8076
aI14590
aI10130
aI1940
aI14230
aI6041
aI10139
aI10141
aI15685
aI10144
aI8097
aI15003
aI1956
aI10149
aI8102
aI10151
aI8860
aI8106
aI2375
aI10156
aI14253
aI10568
aI8115
aI1975
aI10168
aI1012
aI10171
aI16317
aI14271
aI8128
aI10571
aI6084
aI8133
aI1992
aI14283
aI1996
aI2001
aI6099
aI14293
aI14295
aI10200
aI10201
aI15695
aI10206
aI10208
aI2020
aI9894
aI15343
aI14312
aI10217
aI6123
aI14593
aI1021
aI10224
aI10229
aI2041
aI2042
aI6143
aI8188
aI2045
aI6142
aI2047
atRp38
ag2
((lp39
I0
aI2048
aI8194
aI7510
aI14342
aI7
aI9
aI8203
aI16396
aI4109
aI6159
aI15208
aI16406
aI26
aI31
aI2080
aI8225
aI35
aI37
aI38
aI12330
aI43
aI6188
aI6190
aI52
aI56
aI2106
aI2108
aI9493
aI2111
aI14400
aI70
aI8263
aI73
aI14411
aI76
aI4180
aI4181
aI8278
aI14392
aI4192
aI2145
aI7867
aI6245
aI2150
aI4199
aI105
aI2155
aI10348
aI4211
aI116
aI8309
aI4214
aI120
aI15050
aI2171
aI124
aI8318
aI14463
aI6275
aI16517
aI8326
aI14700
aI6282
aI141
aI143
aI2192
aI9240
aI8340
aI4245
aI4246
aI2200
aI14490
aI13680
aI14498
aI164
aI8357
aI166
aI15729
aI168
aI8198
aI6317
aI4271
aI16561
aI182
aI2234
aI188
aI4810
aI15345
aI1024
aI8385
aI16579
aI16584
aI4297
aI6346
aI203
aI2252
aI206
aI8909
aI209
aI6355
aI212
aI14549
aI14550
aI6359
aI16033
aI4316
aI15965
aI13691
aI8422
aI8426
aI15058
aI10482
aI2291
aI2295
aI2296
aI14587
aI16641
aI8450
aI2091
aI14597
aI4361
aI2315
aI4364
aI12557
aI6418
aI14724
aI6533
aI10528
aI14626
aI8483
aI6438
aI4391
aI8488
aI14636
aI4399
aI14642
aI14643
aI8500
aI8501
aI9092
aI14651
aI12605
aI2366
aI2367
aI15414
aI8518
aI10569
aI2378
aI331
aI2380
aI334
aI2104
aI338
aI2387
aI14734
aI6489
aI350
aI14810
aI4496
aI4450
aI4451
aI14692
aI6501
aI2412
aI4462
aI367
aI14755
aI6547
aI372
aI14712
aI6526
aI7915
aI12676
aI2437
aI16492
aI16107
aI8585
aI394
aI14732
aI9282
aI6542
aI400
aI2451
aI4502
aI2458
aI2463
aI15088
aI6563
aI420
aI8614
aI423
aI6569
aI428
aI8624
aI3144
aI4852
aI6586
aI8641
aI450
aI451
aI2500
aI6597
aI14790
aI4552
aI8652
aI2511
aI14800
aI4789
aI2514
aI2515
aI4567
aI8664
aI6618
aI8667
aI8669
aI8670
aI8671
aI4583
aI6633
aI4587
aI14831
aI8688
aI8690
aI4595
aI6648
aI3156
aI6653
aI6229
aI16128
aI2562
aI9087
aI8709
aI518
aI520
aI2577
aI8963
aI8724
aI6678
aI2584
aI2587
aI541
aI2592
aI9088
aI12835
aI13589
aI14887
aI8967
aI4652
aI2608
aI4662
aI567
aI14905
aI15443
aI4670
aI14432
aI2634
aI2636
aI8781
aI8783
aI8291
aI10836
aI6741
aI598
aI15461
aI12899
aI14950
aI2672
aI4722
aI14964
aI2678
aI4201
aI14968
aI3860
aI8068
aI3178
aI8831
aI107
aI14980
aI647
aI2696
aI2697
aI6796
aI8847
aI4756
aI9326
aI12950
aI4760
aI14788
aI12954
aI670
aI15008
aI4771
aI15015
aI2728
aI4777
aI684
aI685
aI2734
aI4783
aI8882
aI8307
aI10933
aI5577
aI799
aI702
aI6848
aI4801
aI2755
aI118
aI8993
aI14796
aI2762
aI8908
aI717
aI2769
aI8914
aI8655
aI6881
aI2786
aI4837
aI2790
aI8935
aI8316
aI2795
aI6893
aI752
aI7731
aI756
aI757
aI4854
aI6903
aI127
aI8956
aI6910
aI15103
aI4864
aI4867
aI6919
aI778
aI6924
aI781
aI15029
aI2835
aI15934
aI790
aI797
aI2847
aI6944
aI11041
aI13091
aI13100
aI6957
aI15152
aI817
aI11062
aI4920
aI4926
aI13803
aI15840
aI2883
aI4932
aI11077
aI8598
aI4938
aI9036
aI2893
aI15182
aI2189
aI9043
aI2900
aI859
aI860
aI7006
aI2915
aI4964
aI7013
aI15206
aI4967
aI2920
aI2921
aI16468
aI2931
aI15221
aI14825
aI7034
aI14146
aI2943
aI4992
aI898
aI4995
aI7044
aI906
aI907
aI2957
aI5006
aI1176
aI9106
aI9027
aI2964
aI2965
aI919
aI2968
aI14488
aI9029
aI13216
aI2978
aI15267
aI9125
aI5030
aI9127
aI7080
aI7087
aI14835
aI7092
aI949
aI5046
aI5961
aI15289
aI7106
aI13251
aI9156
aI9157
aI6306
aI981
aI9721
aI3035
aI3037
aI3038
aI992
aI7137
aI5625
aI9190
aI5628
aI3052
aI2216
aI5111
aI9209
aI7162
aI9212
aI7338
aI3070
aI3071
aI3072
aI5121
aI16401
aI11270
aI7176
aI7178
aI3084
aI3086
aI5135
aI7192
aI9173
aI5147
aI7196
aI3106
aI7203
aI9252
aI3249
aI3112
aI9257
aI1071
aI9266
aI3124
aI5174
aI15416
aI5179
aI1086
aI1089
aI5186
aI9283
aI15428
aI15432
aI9290
aI9059
aI1108
aI9175
aI9304
aI9306
aI15451
aI186
aI1118
aI3167
aI3168
aI15457
aI7266
aI9316
aI7269
aI4625
aI12476
aI13418
aI9323
aI3181
aI3182
aI3183
aI9064
aI15475
aI9334
aI873
aI7289
aI9338
aI15485
aI3198
aI15489
aI15256
aI9751
aI15502
aI5264
aI13457
aI15508
aI7318
aI15897
aI5272
aI5275
aI15520
aI4635
aI9380
aI1194
aI1197
aI1201
aI15544
aI3258
aI1213
aI1568
aI15554
aI3271
aI3960
aI9426
aI5333
aI1238
aI16249
aI9432
aI15581
aI5342
aI5344
aI5345
aI3622
aI15593
aI1259
aI3314
aI3319
aI3321
aI5370
aI3967
aI13564
aI11518
aI7424
aI7425
aI7476
aI1290
aI7435
aI7436
aI4994
aI5395
aI9492
aI7445
aI13591
aI3353
aI3354
aI13595
aI7452
aI9501
aI15646
aI13602
aI5413
aI7462
aI3368
aI1322
aI15661
aI3375
aI3379
aI3380
aI9526
aI5432
aI7482
aI11579
aI15676
aI9098
aI13631
aI15680
aI3394
aI15684
aI11589
aI7494
aI1354
aI9554
aI13651
aI15702
aI15710
aI7521
aI13666
aI7525
aI13671
aI9578
aI3436
aI1389
aI15933
aI1392
aI9389
aI5694
aI1398
aI15252
aI9595
aI7552
aI13888
aI13703
aI13704
aI15753
aI9799
aI9612
aI3472
aI7569
aI7574
aI13719
aI5530
aI13723
aI3485
aI9633
aI7587
aI14028
aI5541
aI3494
aI1449
aI7595
aI242
aI5553
aI5554
aI13747
aI9660
aI13757
aI1480
aI3529
aI13770
aI9463
aI7278
aI1490
aI11731
aI15828
aI5369
aI1497
aI3547
aI5596
aI13562
aI5600
aI5604
aI5605
aI5606
aI7655
aI9393
aI1515
aI4415
aI1522
aI5621
aI9719
aI9720
aI3577
aI13818
aI7676
aI3582
aI13909
aI7682
aI13827
aI15876
aI6742
aI5639
aI5640
aI9737
aI7693
aI9746
aI15894
aI13847
aI7704
aI9753
aI5659
aI13852
aI9758
aI13855
aI15904
aI1574
aI9767
aI7720
aI13865
aI5675
aI7724
aI3630
aI1583
aI1587
aI1596
aI15626
aI1598
aI5045
aI3648
aI267
aI1607
aI13896
aI15628
aI15947
aI15948
aI13902
aI9808
aI4024
aI6755
aI1621
aI7766
aI5723
aI3677
aI3681
aI13930
aI1643
aI14610
aI3694
aI8511
aI1652
aI14035
aI3706
aI5756
aI13949
aI15999
aI1664
aI7966
aI8989
aI3718
aI1672
aI1675
aI15298
aI5780
aI13975
aI16026
aI13979
aI16032
aI3745
aI5797
aI3760
aI7422
aI3765
aI5815
aI1720
aI9915
aI14012
aI7872
aI8480
aI14022
aI5836
aI14029
aI9165
aI9128
aI1752
aI5850
aI3803
aI3809
aI16106
aI1771
aI16108
aI8146
aI7919
aI14069
aI1785
aI11903
aI1788
aI3029
aI3840
aI1793
aI7942
aI5899
aI1804
aI14093
aI3854
aI14095
aI1812
aI7959
aI5918
aI5919
aI16161
aI14114
aI16163
aI14119
aI9181
aI14984
aI16180
aI6793
aI1849
aI1854
aI14143
aI14144
aI1857
aI8002
aI14148
aI12102
aI9185
aI1865
aI1868
aI16013
aI15672
aI8021
aI14170
aI3931
aI3932
aI16357
aI8033
aI1890
aI3942
aI16240
aI1912
aI8057
aI1915
aI661
aI6020
aI3978
aI14220
aI8079
aI6277
aI16279
aI3995
aI666
aI16286
aI15136
aI1009
aI8178
aI16302
aI14261
aI6473
aI202
aI12218
aI16316
aI8125
aI4032
aI14279
aI6088
aI14282
aI4043
aI8141
aI6886
aI4050
aI4053
aI14294
aI2014
aI10207
aI16352
aI10209
aI2018
aI2021
aI16358
aI2023
aI4072
aI15356
aI2029
aI4078
aI14319
aI4082
aI2036
aI6133
aI16377
aI14330
aI16380
aI8189
aI9779
atRp40
ag2
((lp41
I2050
aI3
aI4
aI5
aI8
aI6155
aI12300
aI13
aI12302
aI8211
aI6168
aI4122
aI12316
aI32
aI12322
aI12323
aI12325
aI4135
aI12328
aI10282
aI16429
aI12296
aI50
aI12341
aI8246
aI8247
aI12439
aI12348
aI10475
aI4165
aI71
aI12361
aI6218
aI11959
aI12642
aI12367
aI6224
aI8276
aI12374
aI87
aI12377
aI8282
aI93
aI14430
aI16480
aI12396
aI6257
aI15857
aI2163
aI12405
aI12409
aI12410
aI12411
aI6270
aI2175
aI14531
aI11443
aI134
aI12424
aI12425
aI12432
aI12312
aI2196
aI149
aI14487
aI6302
aI6305
aI12454
aI16555
aI15730
aI2223
aI12659
aI8372
aI11294
aI14518
aI8375
aI12474
aI10431
aI12481
aI4291
aI12485
aI2250
aI12493
aI12497
aI12499
aI12500
aI12502
aI12503
aI8415
aI12516
aI12517
aI4328
aI16619
aI12527
aI16624
aI12529
aI12530
aI10483
aI12532
aI11646
aI246
aI252
aI9941
aI16640
aI16642
aI259
aI12549
aI4360
aI265
aI4362
aI11607
aI4368
aI10627
aI2324
aI12565
aI12566
aI12568
aI11652
aI8474
aI12677
aI2337
aI8484
aI10533
aI294
aI6441
aI12587
aI10540
aI12590
aI11997
aI12592
aI4401
aI12594
aI10547
aI6452
aI8502
aI14729
aI4409
aI2362
aI10559
aI12611
aI12612
aI12613
aI6476
aI4437
aI12630
aI2391
aI14837
aI5399
aI6497
aI8546
aI10595
aI12645
aI12646
aI14697
aI12655
aI4464
aI8561
aI4467
aI374
aI8567
aI12667
aI12668
aI6531
aI4485
aI6537
aI11671
aI12685
aI13720
aI12690
aI12691
aI12693
aI412
aI12705
aI2466
aI12707
aI14760
aI12715
aI10668
aI10672
aI10673
aI12722
aI6580
aI6581
aI12728
aI4542
aI4544
aI2497
aI10692
aI456
aI12745
aI12023
aI4557
aI462
aI12752
aI8657
aI6611
aI10710
aI8881
aI8954
aI6622
aI6623
aI9495
aI484
aI4449
aI10736
aI8689
aI4594
aI8693
aI4598
aI14841
aI9301
aI512
aI4610
aI4613
aI6664
aI4617
aI522
aI525
aI16589
aI6685
aI12843
aI11698
aI558
aI6237
aI564
aI14907
aI10812
aI6719
aI576
aI11361
aI14926
aI8785
aI596
aI11706
aI10847
aI6752
aI10850
aI4715
aI4716
aI10863
aI4720
aI2494
aI14967
aI14976
aI2496
aI6787
aI644
aI4745
aI10890
aI14992
aI10897
aI8858
aI669
aI4767
aI12960
aI15009
aI674
aI15912
aI689
aI12403
aI10932
aI15033
aI8890
aI700
aI2752
aI10945
aI10949
aI15137
aI10955
aI12066
aI6866
aI10968
aI10970
aI733
aI11728
aI10984
aI4841
aI8938
aI6892
aI2889
aI15092
aI761
aI2810
aI763
aI2812
aI8957
aI779
aI12233
aI11030
aI15302
aI11033
aI6939
aI8988
aI11738
aI11040
aI2849
aI3207
aI14689
aI11742
aI9018
aI6972
aI914
aI9023
aI9024
aI6977
aI841
aI11085
aI11086
aI15185
aI4946
aI15187
aI7001
aI11098
aI7010
aI4963
aI4975
aI9072
aI7026
aI7027
aI884
aI4983
aI15224
aI889
aI12095
aI892
aI2941
aI15231
aI901
aI2950
aI11144
aI11147
aI910
aI5008
aI7057
aI5010
aI16477
aI5015
aI2969
aI11165
aI5023
aI2976
aI930
aI11172
aI11174
aI14833
aI11177
aI12446
aI2999
aI3004
aI11199
aI12239
aI3017
aI10330
aI11223
aI9178
aI11229
aI7398
aI3043
aI13289
aI5099
aI11244
aI5102
aI9200
aI15349
aI7159
aI7160
aI7161
aI15354
aI3068
aI11261
aI15360
aI3074
aI11436
aI9226
aI11279
aI1042
aI11779
aI3096
aI9246
aI11296
aI5154
aI11299
aI11304
aI7209
aI5166
aI11312
aI5169
aI5171
aI7224
aI1083
aI9277
aI3140
aI15543
aI5197
aI3150
aI5202
aI15392
aI5205
aI11354
aI3163
aI15452
aI11359
aI11360
aI5217
aI11363
aI11370
aI15468
aI7277
aI11377
aI11795
aI9335
aI9336
aI9339
aI3196
aI5246
aI11797
aI1159
aI7305
aI7306
aI9355
aI11459
aI8427
aI5274
aI3227
aI9372
aI1182
aI9375
aI3233
aI15525
aI16170
aI11433
aI9388
aI882
aI9391
aI1224
aI883
aI5303
aI1211
aI12490
aI9411
aI15556
aI5319
aI5320
aI5323
aI11471
aI11474
aI11477
aI1239
aI1240
aI5337
aI15579
aI11487
aI11488
aI11489
aI1254
aI11495
aI1257
aI11502
aI7409
aI11507
aI11508
aI11514
aI11516
aI15250
aI12160
aI11525
aI9478
aI12570
aI3344
aI15576
aI11542
aI7447
aI11544
aI15641
aI11546
aI1307
aI11550
aI16239
aI11552
aI11555
aI14214
aI9512
aI5417
aI3371
aI11566
aI7471
aI9520
aI5427
aI11572
aI11577
aI1338
aI12511
aI7484
aI5439
aI13635
aI5446
aI3401
aI3405
aI11161
aI13649
aI11602
aI7511
aI11608
aI12175
aI11613
aI15712
aI11619
aI3302
aI1387
aI9581
aI11630
aI9586
aI11635
aI3447
aI3454
aI7555
aI7556
aI11653
aI9606
aI11657
aI11659
aI7565
aI11663
aI7571
aI3476
aI3477
aI3479
aI1432
aI15769
aI7578
aI11675
aI11677
aI1438
aI11680
aI11683
aI8433
aI13736
aI11689
aI11690
aI11505
aI8434
aI9647
aI9650
aI13748
aI9653
aI11703
aI7609
aI9658
aI5564
aI12533
aI928
aI11715
aI11716
aI15815
aI9680
aI7633
aI15831
aI7642
aI11739
aI1500
aI3549
aI5598
aI3554
aI5603
aI9701
aI10833
aI8444
aI15852
aI1521
aI3570
aI11764
aI15273
aI2644
aI15868
aI11774
aI11778
aI9731
aI11862
aI8712
aI7687
aI11785
aI1546
aI5644
aI11792
aI3602
aI3603
aI15892
aI3605
aI11799
aI5656
aI11802
aI11803
aI13853
aI3620
aI13862
aI1575
aI11816
aI7722
aI3628
aI3629
aI13870
aI14941
aI5683
aI5686
aI11833
aI5704
aI15949
aI11855
aI3667
aI3670
aI13913
aI5733
aI9824
aI5730
aI11875
aI11876
aI1637
aI13931
aI13934
aI12221
aI15984
aI3697
aI11895
aI10516
aI11901
aI5761
aI9861
aI7815
aI3722
aI3723
aI7820
aI1679
aI11920
aI1682
aI12227
aI11926
aI11928
aI11931
aI9885
aI7840
aI5794
aI7845
aI9895
aI3754
aI8135
aI11949
aI7855
aI11954
aI11956
aI9910
aI1993
aI14946
aI1722
aI16059
aI11964
aI5823
aI3776
aI7873
aI1730
aI11971
aI9926
aI11978
aI16076
aI11981
aI11982
aI9936
aI1747
aI7893
aI9942
aI11991
aI11995
aI9948
aI3805
aI16096
aI1761
aI12002
aI9960
aI3818
aI12018
aI9513
aI12028
aI13869
aI16130
aI9991
aI5897
aI7954
aI12053
aI5910
aI12055
aI5916
aI1826
aI5927
aI12072
aI12074
aI12075
aI14678
aI5933
aI3890
aI12086
aI5943
aI12089
aI12090
aI1855
aI12101
aI12104
aI11916
aI12107
aI3916
aI14157
aI12110
aI12111
aI12113
aI12133
aI11578
aI5984
aI3941
aI8038
aI14187
aI11922
aI12143
aI6001
aI12153
aI10106
aI14655
aI12158
aI12159
aI10112
aI1003
aI6022
aI10124
aI6031
aI12176
aI12177
aI12179
aI12186
aI1948
aI12189
aI10143
aI11590
aI14254
aI11497
aI12214
aI8121
aI1981
aI12222
aI12223
aI11936
aI1986
aI8131
aI16326
aI1991
aI8136
aI4041
aI12236
aI11597
aI1016
aI12245
aI11257
aI6107
aI2016
aI8162
aI12261
aI11943
aI8177
aI12278
aI12281
aI10234
aI12283
aI12284
aI12285
atRp42
a.